((dp0
S'VOG1544'
p1
I1
sS'VOG1547'
p2
I1
sS'VOG0819'
p3
I1
sS'VOG1543'
p4
I1
sS'VOG0816'
p5
I1
sS'VOG0817'
p6
I1
sS'VOG0367'
p7
I0
sS'VOG0364'
p8
I0
sS'VOG0813'
p9
I1
sS'VOG0568'
p10
I0
sS'VOG0569'
p11
I0
sS'VOG0564'
p12
I1
sS'VOG0566'
p13
I0
sS'VOG0567'
p14
I0
sS'VOG0562'
p15
I1
sS'VOG1540'
p16
I1
sS'VOG4699'
p17
I0
sS'VOG2706'
p18
I1
sS'VOG2704'
p19
I1
sS'VOG2702'
p20
I1
sS'VOG2703'
p21
I1
sS'VOG2700'
p22
I1
sS'VOG2701'
p23
I1
sS'VOG1112'
p24
I1
sS'VOG0811'
p25
I1
sS'VOG0709'
p26
I0
sS'VOG1386'
p27
I2
sS'VOG1383'
p28
I0
sS'VOG1141'
p29
I1
sS'VOG1143'
p30
I1
sS'VOG1142'
p31
I1
sS'VOG1145'
p32
I1
sS'VOG1144'
p33
I1
sS'VOG1147'
p34
I1
sS'VOG1146'
p35
I1
sS'VOG1149'
p36
I1
sS'VOG1148'
p37
I1
sS'VOG0493'
p38
I0
sS'VOG0495'
p39
I0
sS'VOG0497'
p40
I0
sS'VOG2663'
p41
I1
sS'VOG0142'
p42
I0
sS'VOG0143'
p43
I0
sS'VOG0141'
p44
I0
sS'VOG0144'
p45
I0
sS'VOG0145'
p46
I0
sS'VOG0639'
p47
I2
sS'VOG3140'
p48
I0
sS'VOG0384'
p49
I0
sS'VOG5288'
p50
I0
sS'VOG5289'
p51
I0
sS'VOG0382'
p52
I0
sS'VOG2669'
p53
I1
sS'VOG5281'
p54
I0
sS'VOG0388'
p55
I0
sS'VOG0389'
p56
I0
sS'VOG5284'
p57
I0
sS'VOG5285'
p58
I0
sS'VOG5518'
p59
I0
sS'VOG5512'
p60
I0
sS'VOG5513'
p61
I0
sS'VOG5510'
p62
I0
sS'VOG5516'
p63
I0
sS'VOG5517'
p64
I0
sS'VOG5514'
p65
I0
sS'VOG5515'
p66
I0
sS'VOG4649'
p67
I1
sS'VOG4648'
p68
I1
sS'VOG4399'
p69
I0
sS'VOG5267'
p70
I0
sS'VOG5260'
p71
I1
sS'VOG5261'
p72
I0
sS'VOG5263'
p73
I0
sS'VOG4641'
p74
I1
sS'VOG4390'
p75
I0
sS'VOG4397'
p76
I0
sS'VOG4644'
p77
I0
sS'VOG4647'
p78
I2
sS'VOG4646'
p79
I0
sS'VOG3083'
p80
I0
sS'VOG4248'
p81
I0
sS'VOG0038'
p82
I2
sS'VOG0037'
p83
I2
sS'VOG0034'
p84
I2
sS'VOG0035'
p85
I2
sS'VOG0030'
p86
I2
sS'VOG0031'
p87
I2
sS'VOG5604'
p88
I1
sS'VOG5605'
p89
I2
sS'VOG5602'
p90
I2
sS'VOG5603'
p91
I0
sS'VOG5600'
p92
I1
sS'VOG5601'
p93
I1
sS'VOG4802'
p94
I1
sS'VOG4801'
p95
I0
sS'VOG4800'
p96
I0
sS'VOG4805'
p97
I1
sS'VOG4804'
p98
I1
sS'VOG4808'
p99
I2
sS'VOG4944'
p100
I1
sS'VOG5869'
p101
I0
sS'VOG5866'
p102
I0
sS'VOG5867'
p103
I0
sS'VOG5865'
p104
I1
sS'VOG5862'
p105
I0
sS'VOG5863'
p106
I0
sS'VOG5860'
p107
I0
sS'VOG5861'
p108
I0
sS'VOG5462'
p109
I0
sS'VOG5466'
p110
I1
sS'VOG5467'
p111
I1
sS'VOG5464'
p112
I0
sS'VOG5465'
p113
I1
sS'VOG5468'
p114
I1
sS'VOG5469'
p115
I1
sS'VOG4733'
p116
I1
sS'VOG4735'
p117
I1
sS'VOG4734'
p118
I0
sS'VOG4737'
p119
I0
sS'VOG4736'
p120
I0
sS'VOG4739'
p121
I1
sS'VOG4738'
p122
I0
sS'VOG3423'
p123
I1
sS'VOG4126'
p124
I0
sS'VOG4025'
p125
I0
sS'VOG3048'
p126
I1
sS'VOG3049'
p127
I1
sS'VOG4021'
p128
I0
sS'VOG4020'
p129
I0
sS'VOG4022'
p130
I0
sS'VOG3042'
p131
I1
sS'VOG3731'
p132
I2
sS'VOG3044'
p133
I1
sS'VOG3045'
p134
I1
sS'VOG3557'
p135
I1
sS'VOG3559'
p136
I1
sS'VOG4667'
p137
I2
sS'VOG5128'
p138
I1
sS'VOG3136'
p139
I0
sS'VOG3137'
p140
I0
sS'VOG3130'
p141
I0
sS'VOG3138'
p142
I0
sS'VOG2553'
p143
I1
sS'VOG2552'
p144
I1
sS'VOG1609'
p145
I1
sS'VOG1979'
p146
I0
sS'VOG2555'
p147
I1
sS'VOG2554'
p148
I1
sS'VOG1602'
p149
I1
sS'VOG1975'
p150
I0
sS'VOG1600'
p151
I1
sS'VOG2558'
p152
I1
sS'VOG1607'
p153
I1
sS'VOG1604'
p154
I1
sS'VOG1605'
p155
I1
sS'VOG2390'
p156
I2
sS'VOG1775'
p157
I0
sS'VOG1987'
p158
I0
sS'VOG2171'
p159
I1
sS'VOG2170'
p160
I1
sS'VOG2173'
p161
I1
sS'VOG2172'
p162
I1
sS'VOG2174'
p163
I1
sS'VOG2177'
p164
I1
sS'VOG0701'
p165
I1
sS'VOG2178'
p166
I1
sS'VOG1636'
p167
I1
sS'VOG3958'
p168
I1
sS'VOG5893'
p169
I0
sS'VOG0704'
p170
I1
sS'VOG5327'
p171
I1
sS'VOG3957'
p172
I1
sS'VOG5326'
p173
I0
sS'VOG4627'
p174
I1
sS'VOG4626'
p175
I1
sS'VOG5323'
p176
I0
sS'VOG1803'
p177
I0
sS'VOG0821'
p178
I1
sS'VOG5322'
p179
I0
sS'VOG0558'
p180
I1
sS'VOG4895'
p181
I0
sS'VOG5486'
p182
I1
sS'VOG0557'
p183
I1
sS'VOG0556'
p184
I1
sS'VOG2778'
p185
I1
sS'VOG2773'
p186
I1
sS'VOG2771'
p187
I1
sS'VOG2770'
p188
I1
sS'VOG2774'
p189
I1
sS'VOG0953'
p190
I2
sS'VOG0952'
p191
I2
sS'VOG0731'
p192
I1
sS'VOG3390'
p193
I1
sS'VOG1396'
p194
I2
sS'VOG1391'
p195
I0
sS'VOG1392'
p196
I2
sS'VOG2607'
p197
I1
sS'VOG2606'
p198
I1
sS'VOG2602'
p199
I1
sS'VOG1158'
p200
I1
sS'VOG1159'
p201
I1
sS'VOG1156'
p202
I1
sS'VOG1157'
p203
I1
sS'VOG1154'
p204
I1
sS'VOG1152'
p205
I1
sS'VOG1153'
p206
I1
sS'VOG1150'
p207
I1
sS'VOG1151'
p208
I1
sS'VOG0603'
p209
I4
sS'VOG0609'
p210
I2
sS'VOG5643'
p211
I0
sS'VOG5253'
p212
I0
sS'VOG5252'
p213
I0
sS'VOG5255'
p214
I0
sS'VOG5254'
p215
I0
sS'VOG5257'
p216
I0
sS'VOG5256'
p217
I0
sS'VOG5259'
p218
I1
sS'VOG5706'
p219
I2
sS'VOG5705'
p220
I2
sS'VOG5704'
p221
I2
sS'VOG5703'
p222
I2
sS'VOG5702'
p223
I1
sS'VOG5700'
p224
I1
sS'VOG5383'
p225
I0
sS'VOG5381'
p226
I1
sS'VOG5380'
p227
I0
sS'VOG5387'
p228
I0
sS'VOG5386'
p229
I0
sS'VOG0043'
p230
I0
sS'VOG0041'
p231
I2
sS'VOG5388'
p232
I0
sS'VOG4254'
p233
I0
sS'VOG5673'
p234
I0
sS'VOG5672'
p235
I0
sS'VOG5671'
p236
I0
sS'VOG5670'
p237
I1
sS'VOG5677'
p238
I1
sS'VOG5676'
p239
I1
sS'VOG5675'
p240
I0
sS'VOG5674'
p241
I0
sS'VOG5679'
p242
I1
sS'VOG5678'
p243
I1
sS'VOG4810'
p244
I0
sS'VOG4811'
p245
I1
sS'VOG4812'
p246
I1
sS'VOG4815'
p247
I1
sS'VOG1100'
p248
I1
sS'VOG5811'
p249
I0
sS'VOG5810'
p250
I0
sS'VOG5817'
p251
I1
sS'VOG5816'
p252
I0
sS'VOG5815'
p253
I0
sS'VOG1103'
p254
I1
sS'VOG4656'
p255
I2
sS'VOG4657'
p256
I2
sS'VOG4654'
p257
I0
sS'VOG4655'
p258
I1
sS'VOG4653'
p259
I0
sS'VOG4651'
p260
I1
sS'VOG5497'
p261
I0
sS'VOG5496'
p262
I1
sS'VOG5495'
p263
I1
sS'VOG5493'
p264
I2
sS'VOG5492'
p265
I1
sS'VOG5490'
p266
I1
sS'VOG4728'
p267
I1
sS'VOG3382'
p268
I4
sS'VOG4726'
p269
I2
sS'VOG4727'
p270
I2
sS'VOG4724'
p271
I0
sS'VOG4725'
p272
I1
sS'VOG4722'
p273
I0
sS'VOG4723'
p274
I0
sS'VOG4721'
p275
I0
sS'VOG5927'
p276
I0
sS'VOG5926'
p277
I1
sS'VOG5924'
p278
I0
sS'VOG5922'
p279
I0
sS'VOG5921'
p280
I0
sS'VOG5920'
p281
I0
sS'VOG5929'
p282
I0
sS'VOG3709'
p283
I1
sS'VOG4030'
p284
I0
sS'VOG4031'
p285
I0
sS'VOG4036'
p286
I0
sS'VOG4037'
p287
I0
sS'VOG4034'
p288
I0
sS'VOG4038'
p289
I0
sS'VOG4039'
p290
I0
sS'VOG3569'
p291
I1
sS'VOG3090'
p292
I0
sS'VOG3094'
p293
I0
sS'VOG3099'
p294
I0
sS'VOG3654'
p295
I1
sS'VOG1313'
p296
I1
sS'VOG3143'
p297
I0
sS'VOG3142'
p298
I0
sS'VOG3141'
p299
I0
sS'VOG3416'
p300
I1
sS'VOG3411'
p301
I1
sS'VOG3410'
p302
I1
sS'VOG3413'
p303
I1
sS'VOG2945'
p304
I1
sS'VOG2940'
p305
I1
sS'VOG2943'
p306
I1
sS'VOG2540'
p307
I1
sS'VOG1948'
p308
I0
sS'VOG1683'
p309
I0
sS'VOG2543'
p310
I1
sS'VOG2544'
p311
I1
sS'VOG2545'
p312
I1
sS'VOG2547'
p313
I1
sS'VOG2548'
p314
I1
sS'VOG2549'
p315
I1
sS'VOG1944'
p316
I0
sS'VOG5287'
p317
I0
sS'VOG3899'
p318
I0
sS'VOG2383'
p319
I2
sS'VOG2380'
p320
I2
sS'VOG2381'
p321
I2
sS'VOG2386'
p322
I2
sS'VOG2384'
p323
I2
sS'VOG2385'
p324
I2
sS'VOG3891'
p325
I0
sS'VOG3890'
p326
I0
sS'VOG3892'
p327
I0
sS'VOG3894'
p328
I0
sS'VOG3921'
p329
I1
sS'VOG2439'
p330
I0
sS'VOG1708'
p331
I0
sS'VOG3964'
p332
I1
sS'VOG3967'
p333
I1
sS'VOG3966'
p334
I1
sS'VOG3961'
p335
I1
sS'VOG3960'
p336
I1
sS'VOG2168'
p337
I1
sS'VOG3962'
p338
I1
sS'VOG2167'
p339
I1
sS'VOG3969'
p340
I1
sS'VOG3968'
p341
I1
sS'VOG4881'
p342
I0
sS'VOG0546'
p343
I1
sS'VOG0547'
p344
I1
sS'VOG0544'
p345
I1
sS'VOG0542'
p346
I1
sS'VOG1836'
p347
I0
sS'VOG5266'
p348
I0
sS'VOG0548'
p349
I1
sS'VOG4398'
p350
I0
sS'VOG2768'
p351
I1
sS'VOG2761'
p352
I1
sS'VOG2763'
p353
I1
sS'VOG2764'
p354
I1
sS'VOG2765'
p355
I1
sS'VOG2766'
p356
I1
sS'VOG2767'
p357
I1
sS'VOG1493'
p358
I0
sS'VOG4393'
p359
I0
sS'VOG1491'
p360
I0
sS'VOG1490'
p361
I0
sS'VOG0946'
p362
I2
sS'VOG0947'
p363
I2
sS'VOG0723'
p364
I1
sS'VOG0720'
p365
I1
sS'VOG4642'
p366
I2
sS'VOG0727'
p367
I1
sS'VOG0724'
p368
I1
sS'VOG0725'
p369
I1
sS'VOG4645'
p370
I0
sS'VOG4395'
p371
I0
sS'VOG4394'
p372
I0
sS'VOG2616'
p373
I1
sS'VOG2617'
p374
I1
sS'VOG2610'
p375
I1
sS'VOG2612'
p376
I1
sS'VOG2613'
p377
I1
sS'VOG1123'
p378
I1
sS'VOG1122'
p379
I1
sS'VOG1121'
p380
I1
sS'VOG1120'
p381
I1
sS'VOG2618'
p382
I1
sS'VOG1126'
p383
I1
sS'VOG1125'
p384
I1
sS'VOG1124'
p385
I1
sS'VOG0832'
p386
I1
sS'VOG5451'
p387
I0
sS'VOG4299'
p388
I0
sS'VOG1237'
p389
I1
sS'VOG1236'
p390
I1
sS'VOG1234'
p391
I1
sS'VOG1233'
p392
I1
sS'VOG1232'
p393
I1
sS'VOG2978'
p394
I1
sS'VOG1238'
p395
I1
sS'VOG5718'
p396
I0
sS'VOG5719'
p397
I0
sS'VOG5248'
p398
I1
sS'VOG5249'
p399
I0
sS'VOG5714'
p400
I0
sS'VOG5247'
p401
I1
sS'VOG5244'
p402
I0
sS'VOG5717'
p403
I0
sS'VOG5710'
p404
I1
sS'VOG5711'
p405
I2
sS'VOG5240'
p406
I0
sS'VOG5713'
p407
I1
sS'VOG5390'
p408
I0
sS'VOG5391'
p409
I1
sS'VOG5392'
p410
I0
sS'VOG5393'
p411
I0
sS'VOG5394'
p412
I1
sS'VOG5396'
p413
I0
sS'VOG5397'
p414
I1
sS'VOG5398'
p415
I0
sS'VOG5399'
p416
I1
sS'VOG1446'
p417
I0
sS'VOG5660'
p418
I1
sS'VOG5664'
p419
I0
sS'VOG5667'
p420
I1
sS'VOG5669'
p421
I1
sS'VOG4282'
p422
I0
sS'VOG4284'
p423
I0
sS'VOG4536'
p424
I0
sS'VOG4535'
p425
I0
sS'VOG4533'
p426
I0
sS'VOG4530'
p427
I0
sS'VOG5808'
p428
I0
sS'VOG5809'
p429
I0
sS'VOG0460'
p430
I0
sS'VOG5800'
p431
I0
sS'VOG5801'
p432
I0
sS'VOG5802'
p433
I0
sS'VOG5803'
p434
I0
sS'VOG5804'
p435
I0
sS'VOG5805'
p436
I0
sS'VOG5806'
p437
I0
sS'VOG5807'
p438
I0
sS'VOG0462'
p439
I0
sS'VOG0920'
p440
I1
sS'VOG1448'
p441
I0
sS'VOG0204'
p442
I1
sS'VOG4622'
p443
I1
sS'VOG4621'
p444
I1
sS'VOG4620'
p445
I0
sS'VOG5488'
p446
I0
sS'VOG5489'
p447
I0
sS'VOG4625'
p448
I0
sS'VOG4624'
p449
I1
sS'VOG5484'
p450
I1
sS'VOG5485'
p451
I1
sS'VOG4629'
p452
I1
sS'VOG4628'
p453
I1
sS'VOG5481'
p454
I1
sS'VOG5482'
p455
I1
sS'VOG5483'
p456
I1
sS'VOG4759'
p457
I0
sS'VOG4758'
p458
I0
sS'VOG4753'
p459
I1
sS'VOG4751'
p460
I1
sS'VOG4750'
p461
I1
sS'VOG4757'
p462
I5
sS'VOG4754'
p463
I0
sS'VOG5930'
p464
I0
sS'VOG2573'
p465
I1
sS'VOG3717'
p466
I1
sS'VOG3714'
p467
I1
sS'VOG3715'
p468
I1
sS'VOG2644'
p469
I1
sS'VOG3710'
p470
I1
sS'VOG3711'
p471
I1
sS'VOG5947'
p472
I0
sS'VOG5414'
p473
I1
sS'VOG3088'
p474
I0
sS'VOG3086'
p475
I0
sS'VOG5941'
p476
I0
sS'VOG3085'
p477
I0
sS'VOG3082'
p478
I0
sS'VOG5487'
p479
I0
sS'VOG4419'
p480
I0
sS'VOG5286'
p481
I0
sS'VOG4148'
p482
I0
sS'VOG3150'
p483
I0
sS'VOG3151'
p484
I0
sS'VOG3153'
p485
I0
sS'VOG3155'
p486
I0
sS'VOG2971'
p487
I1
sS'VOG2977'
p488
I1
sS'VOG0868'
p489
I0
sS'VOG2579'
p490
I1
sS'VOG2574'
p491
I1
sS'VOG2577'
p492
I1
sS'VOG2576'
p493
I1
sS'VOG2571'
p494
I1
sS'VOG3888'
p495
I0
sS'VOG4412'
p496
I0
sS'VOG2379'
p497
I2
sS'VOG2378'
p498
I2
sS'VOG2377'
p499
I2
sS'VOG2375'
p500
I2
sS'VOG2371'
p501
I2
sS'VOG2370'
p502
I0
sS'VOG1714'
p503
I0
sS'VOG1719'
p504
I0
sS'VOG3972'
p505
I1
sS'VOG3973'
p506
I1
sS'VOG2119'
p507
I1
sS'VOG3971'
p508
I1
sS'VOG3976'
p509
I1
sS'VOG3974'
p510
I1
sS'VOG2113'
p511
I2
sS'VOG3978'
p512
I1
sS'VOG3979'
p513
I1
sS'VOG2117'
p514
I2
sS'VOG2116'
p515
I2
sS'VOG2115'
p516
I2
sS'VOG2114'
p517
I2
sS'VOG1956'
p518
I0
sS'VOG4128'
p519
I0
sS'VOG1952'
p520
I0
sS'VOG1953'
p521
I0
sS'VOG1950'
p522
I0
sS'VOG1951'
p523
I0
sS'VOG0532'
p524
I1
sS'VOG0534'
p525
I1
sS'VOG0539'
p526
I1
sS'VOG1821'
p527
I0
sS'VOG2027'
p528
I1
sS'VOG2025'
p529
I1
sS'VOG2024'
p530
I1
sS'VOG2023'
p531
I1
sS'VOG2021'
p532
I1
sS'VOG2020'
p533
I1
sS'VOG1005'
p534
I0
sS'VOG1006'
p535
I0
sS'VOG1001'
p536
I0
sS'VOG2029'
p537
I1
sS'VOG2596'
p538
I1
sS'VOG2595'
p539
I1
sS'VOG2594'
p540
I1
sS'VOG2593'
p541
I1
sS'VOG2592'
p542
I1
sS'VOG2591'
p543
I1
sS'VOG2590'
p544
I1
sS'VOG1483'
p545
I0
sS'VOG1487'
p546
I0
sS'VOG1489'
p547
I0
sS'VOG0997'
p548
I0
sS'VOG0448'
p549
I0
sS'VOG0447'
p550
I0
sS'VOG0445'
p551
I0
sS'VOG0444'
p552
I0
sS'VOG0443'
p553
I0
sS'VOG0441'
p554
I0
sS'VOG2621'
p555
I1
sS'VOG2620'
p556
I1
sS'VOG2622'
p557
I1
sS'VOG2624'
p558
I1
sS'VOG2626'
p559
I1
sS'VOG2629'
p560
I1
sS'VOG2628'
p561
I1
sS'VOG1133'
p562
I1
sS'VOG1137'
p563
I1
sS'VOG0843'
p564
I1
sS'VOG0842'
p565
I1
sS'VOG0840'
p566
I1
sS'VOG0847'
p567
I1
sS'VOG0848'
p568
I1
sS'VOG0668'
p569
I0
sS'VOG0661'
p570
I0
sS'VOG1348'
p571
I0
sS'VOG0195'
p572
I1
sS'VOG0194'
p573
I1
sS'VOG0196'
p574
I1
sS'VOG1224'
p575
I1
sS'VOG1225'
p576
I1
sS'VOG1227'
p577
I1
sS'VOG1222'
p578
I1
sS'VOG1223'
p579
I1
sS'VOG1229'
p580
I1
sS'VOG5728'
p581
I1
sS'VOG5239'
p582
I0
sS'VOG5238'
p583
I0
sS'VOG5233'
p584
I0
sS'VOG5232'
p585
I1
sS'VOG5723'
p586
I2
sS'VOG5230'
p587
I0
sS'VOG5237'
p588
I0
sS'VOG5236'
p589
I0
sS'VOG5727'
p590
I1
sS'VOG5726'
p591
I0
sS'VOG0065'
p592
I0
sS'VOG0064'
p593
I0
sS'VOG0067'
p594
I0
sS'VOG0066'
p595
I0
sS'VOG0061'
p596
I0
sS'VOG0069'
p597
I0
sS'VOG0068'
p598
I0
sS'VOG0265'
p599
I2
sS'VOG0264'
p600
I2
sS'VOG0263'
p601
I2
sS'VOG0261'
p602
I2
sS'VOG5659'
p603
I0
sS'VOG5658'
p604
I0
sS'VOG5129'
p605
I0
sS'VOG3036'
p606
I1
sS'VOG5127'
p607
I0
sS'VOG5654'
p608
I0
sS'VOG5125'
p609
I1
sS'VOG5656'
p610
I0
sS'VOG5651'
p611
I1
sS'VOG5650'
p612
I0
sS'VOG5653'
p613
I0
sS'VOG5652'
p614
I0
sS'VOG5835'
p615
I1
sS'VOG5834'
p616
I1
sS'VOG5345'
p617
I1
sS'VOG5836'
p618
I1
sS'VOG5831'
p619
I1
sS'VOG5342'
p620
I0
sS'VOG5341'
p621
I0
sS'VOG5832'
p622
I1
sS'VOG4524'
p623
I0
sS'VOG4525'
p624
I0
sS'VOG4294'
p625
I0
sS'VOG4295'
p626
I0
sS'VOG5839'
p627
I1
sS'VOG5838'
p628
I1
sS'VOG5349'
p629
I1
sS'VOG5348'
p630
I1
sS'VOG4630'
p631
I0
sS'VOG4631'
p632
I0
sS'VOG4632'
p633
I1
sS'VOG4635'
p634
I2
sS'VOG4636'
p635
I1
sS'VOG4637'
p636
I1
sS'VOG4638'
p637
I1
sS'VOG4639'
p638
I1
sS'VOG4748'
p639
I1
sS'VOG4749'
p640
I0
sS'VOG4740'
p641
I1
sS'VOG4742'
p642
I0
sS'VOG4744'
p643
I0
sS'VOG3362'
p644
I6
sS'VOG4747'
p645
I0
sS'VOG5900'
p646
I0
sS'VOG5902'
p647
I2
sS'VOG5904'
p648
I0
sS'VOG5907'
p649
I0
sS'VOG5909'
p650
I1
sS'VOG5908'
p651
I1
sS'VOG4788'
p652
I0
sS'VOG5196'
p653
I0
sS'VOG5625'
p654
I1
sS'VOG5195'
p655
I0
sS'VOG5193'
p656
I0
sS'VOG2963'
p657
I1
sS'VOG2961'
p658
I1
sS'VOG3167'
p659
I0
sS'VOG3162'
p660
I0
sS'VOG2921'
p661
I1
sS'VOG3212'
p662
I1
sS'VOG2560'
p663
I1
sS'VOG2561'
p664
I1
sS'VOG2566'
p665
I1
sS'VOG2567'
p666
I1
sS'VOG2565'
p667
I1
sS'VOG0439'
p668
I0
sS'VOG2364'
p669
I0
sS'VOG2361'
p670
I2
sS'VOG1829'
p671
I0
sS'VOG4027'
p672
I0
sS'VOG4026'
p673
I0
sS'VOG0925'
p674
I1
sS'VOG3738'
p675
I2
sS'VOG3739'
p676
I2
sS'VOG0436'
p677
I0
sS'VOG5430'
p678
I1
sS'VOG3989'
p679
I1
sS'VOG3988'
p680
I1
sS'VOG2100'
p681
I2
sS'VOG2101'
p682
I2
sS'VOG3985'
p683
I1
sS'VOG2103'
p684
I2
sS'VOG2104'
p685
I2
sS'VOG2105'
p686
I2
sS'VOG3981'
p687
I1
sS'VOG2107'
p688
I2
sS'VOG2290'
p689
I0
sS'VOG1921'
p690
I0
sS'VOG1920'
p691
I0
sS'VOG1924'
p692
I0
sS'VOG1589'
p693
I1
sS'VOG0521'
p694
I1
sS'VOG0523'
p695
I1
sS'VOG0524'
p696
I1
sS'VOG0525'
p697
I1
sS'VOG0526'
p698
I1
sS'VOG0528'
p699
I1
sS'VOG1580'
p700
I1
sS'VOG1583'
p701
I1
sS'VOG1857'
p702
I0
sS'VOG1584'
p703
I1
sS'VOG1587'
p704
I1
sS'VOG2036'
p705
I1
sS'VOG2033'
p706
I1
sS'VOG2038'
p707
I1
sS'VOG2039'
p708
I1
sS'VOG2585'
p709
I1
sS'VOG2587'
p710
I1
sS'VOG2580'
p711
I1
sS'VOG2581'
p712
I1
sS'VOG2582'
p713
I1
sS'VOG5435'
p714
I0
sS'VOG2588'
p715
I1
sS'VOG2589'
p716
I1
sS'VOG1105'
p717
I1
sS'VOG1456'
p718
I0
sS'VOG1107'
p719
I1
sS'VOG1101'
p720
I1
sS'VOG0459'
p721
I0
sS'VOG1451'
p722
I0
sS'VOG1102'
p723
I1
sS'VOG0454'
p724
I0
sS'VOG0456'
p725
I0
sS'VOG0457'
p726
I0
sS'VOG0450'
p727
I0
sS'VOG1108'
p728
I1
sS'VOG0452'
p729
I0
sS'VOG2639'
p730
I1
sS'VOG2634'
p731
I1
sS'VOG2632'
p732
I1
sS'VOG2633'
p733
I1
sS'VOG2631'
p734
I1
sS'VOG0850'
p735
I1
sS'VOG0183'
p736
I1
sS'VOG0181'
p737
I1
sS'VOG0679'
p738
I0
sS'VOG1210'
p739
I1
sS'VOG1213'
p740
I1
sS'VOG1212'
p741
I1
sS'VOG1215'
p742
I1
sS'VOG5440'
p743
I1
sS'VOG4917'
p744
I0
sS'VOG5228'
p745
I0
sS'VOG5229'
p746
I0
sS'VOG5220'
p747
I0
sS'VOG4911'
p748
I0
sS'VOG5223'
p749
I1
sS'VOG5224'
p750
I0
sS'VOG5225'
p751
I0
sS'VOG5226'
p752
I0
sS'VOG0079'
p753
I0
sS'VOG0273'
p754
I2
sS'VOG5648'
p755
I0
sS'VOG5649'
p756
I0
sS'VOG4729'
p757
I1
sS'VOG5139'
p758
I0
sS'VOG5134'
p759
I0
sS'VOG5135'
p760
I1
sS'VOG5641'
p761
I0
sS'VOG5130'
p762
I0
sS'VOG5131'
p763
I0
sS'VOG5132'
p764
I0
sS'VOG5645'
p765
I0
sS'VOG5354'
p766
I1
sS'VOG5823'
p767
I0
sS'VOG5356'
p768
I0
sS'VOG5357'
p769
I0
sS'VOG5826'
p770
I2
sS'VOG5827'
p771
I1
sS'VOG5352'
p772
I1
sS'VOG5825'
p773
I2
sS'VOG4510'
p774
I0
sS'VOG5828'
p775
I1
sS'VOG5358'
p776
I1
sS'VOG5359'
p777
I0
sS'VOG2819'
p778
I1
sS'VOG4199'
p779
I0
sS'VOG4195'
p780
I0
sS'VOG4194'
p781
I0
sS'VOG4191'
p782
I0
sS'VOG4190'
p783
I0
sS'VOG4193'
p784
I0
sS'VOG4192'
p785
I0
sS'VOG5737'
p786
I0
sS'VOG5735'
p787
I0
sS'VOG5732'
p788
I1
sS'VOG4608'
p789
I1
sS'VOG5730'
p790
I2
sS'VOG4605'
p791
I1
sS'VOG4604'
p792
I1
sS'VOG4607'
p793
I1
sS'VOG4601'
p794
I1
sS'VOG5738'
p795
I0
sS'VOG4602'
p796
I1
sS'VOG4177'
p797
I0
sS'VOG4176'
p798
I0
sS'VOG4173'
p799
I0
sS'VOG4172'
p800
I0
sS'VOG4171'
p801
I0
sS'VOG3374'
p802
I2
sS'VOG3371'
p803
I2
sS'VOG4179'
p804
I0
sS'VOG4178'
p805
I0
sS'VOG1981'
p806
I0
sS'VOG5919'
p807
I1
sS'VOG5916'
p808
I0
sS'VOG5914'
p809
I0
sS'VOG5915'
p810
I0
sS'VOG5912'
p811
I0
sS'VOG5913'
p812
I0
sS'VOG5910'
p813
I1
sS'VOG5911'
p814
I1
sS'VOG1505'
p815
I0
sS'VOG0449'
p816
I0
sS'VOG4137'
p817
I0
sS'VOG0996'
p818
I0
sS'VOG2550'
p819
I1
sS'VOG2913'
p820
I1
sS'VOG2912'
p821
I1
sS'VOG2910'
p822
I1
sS'VOG2917'
p823
I1
sS'VOG5742'
p824
I0
sS'VOG2919'
p825
I1
sS'VOG2918'
p826
I1
sS'VOG5741'
p827
I0
sS'VOG4775'
p828
I0
sS'VOG4774'
p829
I1
sS'VOG3179'
p830
I1
sS'VOG1603'
p831
I1
sS'VOG3172'
p832
I0
sS'VOG5747'
p833
I2
sS'VOG4778'
p834
I0
sS'VOG3174'
p835
I1
sS'VOG5210'
p836
I2
sS'VOG3206'
p837
I1
sS'VOG1601'
p838
I1
sS'VOG5213'
p839
I0
sS'VOG5212'
p840
I1
sS'VOG3196'
p841
I1
sS'VOG3193'
p842
I1
sS'VOG2350'
p843
I2
sS'VOG2355'
p844
I2
sS'VOG5749'
p845
I0
sS'VOG2357'
p846
I2
sS'VOG5748'
p847
I0
sS'VOG4617'
p848
I0
sS'VOG2829'
p849
I1
sS'VOG2828'
p850
I1
sS'VOG2827'
p851
I1
sS'VOG2825'
p852
I1
sS'VOG2824'
p853
I1
sS'VOG2823'
p854
I1
sS'VOG2822'
p855
I1
sS'VOG2821'
p856
I1
sS'VOG2820'
p857
I1
sS'VOG2131'
p858
I0
sS'VOG2130'
p859
I0
sS'VOG5404'
p860
I1
sS'VOG1930'
p861
I0
sS'VOG5331'
p862
I0
sS'VOG1849'
p863
I0
sS'VOG1024'
p864
I0
sS'VOG0514'
p865
I1
sS'VOG0511'
p866
I0
sS'VOG0510'
p867
I0
sS'VOG2001'
p868
I0
sS'VOG2000'
p869
I0
sS'VOG2002'
p870
I0
sS'VOG2005'
p871
I0
sS'VOG2004'
p872
I0
sS'VOG2006'
p873
I0
sS'VOG5406'
p874
I2
sS'VOG5844'
p875
I1
sS'VOG1400'
p876
I2
sS'VOG0469'
p877
I0
sS'VOG1113'
p878
I1
sS'VOG1110'
p879
I1
sS'VOG1447'
p880
I0
sS'VOG1443'
p881
I0
sS'VOG0461'
p882
I0
sS'VOG5334'
p883
I0
sS'VOG0463'
p884
I0
sS'VOG1119'
p885
I1
sS'VOG0465'
p886
I0
sS'VOG0464'
p887
I0
sS'VOG0466'
p888
I0
sS'VOG2649'
p889
I1
sS'VOG2648'
p890
I1
sS'VOG2643'
p891
I1
sS'VOG2642'
p892
I1
sS'VOG2641'
p893
I1
sS'VOG2645'
p894
I1
sS'VOG4864'
p895
I0
sS'VOG1596'
p896
I1
sS'VOG1597'
p897
I1
sS'VOG1594'
p898
I1
sS'VOG1595'
p899
I1
sS'VOG1593'
p900
I1
sS'VOG1590'
p901
I1
sS'VOG1591'
p902
I1
sS'VOG0861'
p903
I1
sS'VOG1598'
p904
I1
sS'VOG1599'
p905
I1
sS'VOG0645'
p906
I2
sS'VOG0644'
p907
I2
sS'VOG0643'
p908
I2
sS'VOG0642'
p909
I2
sS'VOG0887'
p910
I1
sS'VOG0889'
p911
I1
sS'VOG0888'
p912
I1
sS'VOG1208'
p913
I1
sS'VOG1209'
p914
I1
sS'VOG1206'
p915
I1
sS'VOG1207'
p916
I1
sS'VOG5585'
p917
I1
sS'VOG5584'
p918
I1
sS'VOG5587'
p919
I1
sS'VOG5586'
p920
I1
sS'VOG5581'
p921
I2
sS'VOG5580'
p922
I1
sS'VOG5583'
p923
I2
sS'VOG5582'
p924
I2
sS'VOG5589'
p925
I1
sS'VOG5588'
p926
I1
sS'VOG0080'
p927
I0
sS'VOG5361'
p928
I1
sS'VOG5360'
p929
I2
sS'VOG5362'
p930
I0
sS'VOG5365'
p931
I0
sS'VOG5364'
p932
I1
sS'VOG5367'
p933
I2
sS'VOG5366'
p934
I0
sS'VOG5368'
p935
I1
sS'VOG5691'
p936
I2
sS'VOG5690'
p937
I2
sS'VOG5693'
p938
I2
sS'VOG5692'
p939
I2
sS'VOG5695'
p940
I1
sS'VOG5694'
p941
I0
sS'VOG5697'
p942
I0
sS'VOG5696'
p943
I1
sS'VOG5699'
p944
I1
sS'VOG5698'
p945
I0
sS'VOG4188'
p946
I0
sS'VOG4189'
p947
I0
sS'VOG4181'
p948
I0
sS'VOG4186'
p949
I0
sS'VOG4184'
p950
I0
sS'VOG5743'
p951
I0
sS'VOG5214'
p952
I2
sS'VOG5217'
p953
I0
sS'VOG4619'
p954
I1
sS'VOG5211'
p955
I2
sS'VOG5746'
p956
I0
sS'VOG5745'
p957
I0
sS'VOG5744'
p958
I0
sS'VOG4612'
p959
I1
sS'VOG4613'
p960
I0
sS'VOG4610'
p961
I2
sS'VOG4611'
p962
I1
sS'VOG5219'
p963
I0
sS'VOG5218'
p964
I0
sS'VOG4164'
p965
I0
sS'VOG4165'
p966
I0
sS'VOG4166'
p967
I0
sS'VOG4167'
p968
I0
sS'VOG4161'
p969
I0
sS'VOG4162'
p970
I0
sS'VOG3340'
p971
I2
sS'VOG4168'
p972
I0
sS'VOG5969'
p973
I0
sS'VOG5968'
p974
I0
sS'VOG5963'
p975
I0
sS'VOG5962'
p976
I0
sS'VOG5961'
p977
I0
sS'VOG5960'
p978
I0
sS'VOG5967'
p979
I0
sS'VOG5966'
p980
I0
sS'VOG5964'
p981
I0
sS'VOG3741'
p982
I2
sS'VOG3740'
p983
I2
sS'VOG3742'
p984
I2
sS'VOG4507'
p985
I0
sS'VOG4504'
p986
I0
sS'VOG4505'
p987
I0
sS'VOG4503'
p988
I0
sS'VOG2900'
p989
I1
sS'VOG2901'
p990
I1
sS'VOG2902'
p991
I1
sS'VOG5201'
p992
I0
sS'VOG2906'
p993
I1
sS'VOG2907'
p994
I1
sS'VOG4762'
p995
I0
sS'VOG4760'
p996
I0
sS'VOG4761'
p997
I0
sS'VOG4766'
p998
I2
sS'VOG4764'
p999
I0
sS'VOG4765'
p1000
I0
sS'VOG4768'
p1001
I0
sS'VOG2344'
p1002
I2
sS'VOG2341'
p1003
I2
sS'VOG2349'
p1004
I2
sS'VOG2838'
p1005
I1
sS'VOG5720'
p1006
I0
sS'VOG2834'
p1007
I1
sS'VOG4488'
p1008
I0
sS'VOG2830'
p1009
I1
sS'VOG5231'
p1010
I0
sS'VOG2120'
p1011
I1
sS'VOG2121'
p1012
I1
sS'VOG2127'
p1013
I0
sS'VOG5725'
p1014
I1
sS'VOG2128'
p1015
I0
sS'VOG2129'
p1016
I0
sS'VOG5724'
p1017
I1
sS'VOG5234'
p1018
I0
sS'VOG1909'
p1019
I1
sS'VOG1907'
p1020
I1
sS'VOG1901'
p1021
I1
sS'VOG1900'
p1022
I1
sS'VOG1903'
p1023
I1
sS'VOG1902'
p1024
I1
sS'VOG1053'
p1025
I2
sS'VOG1052'
p1026
I2
sS'VOG3685'
p1027
I1
sS'VOG0509'
p1028
I0
sS'VOG1057'
p1029
I2
sS'VOG1055'
p1030
I2
sS'VOG0506'
p1031
I0
sS'VOG0507'
p1032
I0
sS'VOG2018'
p1033
I1
sS'VOG2012'
p1034
I0
sS'VOG2011'
p1035
I0
sS'VOG5265'
p1036
I1
sS'VOG4296'
p1037
I0
sS'VOG0476'
p1038
I0
sS'VOG0477'
p1039
I0
sS'VOG0474'
p1040
I0
sS'VOG0475'
p1041
I0
sS'VOG0473'
p1042
I0
sS'VOG0471'
p1043
I0
sS'VOG0479'
p1044
I0
sS'VOG1472'
p1045
I0
sS'VOG1474'
p1046
I1
sS'VOG1478'
p1047
I1
sS'VOG2659'
p1048
I1
sS'VOG2651'
p1049
I1
sS'VOG2652'
p1050
I1
sS'VOG2653'
p1051
I1
sS'VOG2655'
p1052
I1
sS'VOG2656'
p1053
I1
sS'VOG1418'
p1054
I1
sS'VOG0870'
p1055
I0
sS'VOG4704'
p1056
I1
sS'VOG0651'
p1057
I1
sS'VOG0656'
p1058
I1
sS'VOG0658'
p1059
I1
sS'VOG0894'
p1060
I1
sS'VOG0897'
p1061
I1
sS'VOG0890'
p1062
I1
sS'VOG0893'
p1063
I1
sS'VOG1411'
p1064
I0
sS'VOG1278'
p1065
I1
sS'VOG5592'
p1066
I0
sS'VOG5593'
p1067
I1
sS'VOG5590'
p1068
I8
sS'VOG5591'
p1069
I0
sS'VOG5596'
p1070
I2
sS'VOG5594'
p1071
I0
sS'VOG5595'
p1072
I1
sS'VOG5599'
p1073
I0
sS'VOG0095'
p1074
I0
sS'VOG5657'
p1075
I0
sS'VOG5124'
p1076
I1
sS'VOG1302'
p1077
I1
sS'VOG0258'
p1078
I2
sS'VOG0259'
p1079
I2
sS'VOG0254'
p1080
I2
sS'VOG5347'
p1081
I1
sS'VOG5378'
p1082
I1
sS'VOG5346'
p1083
I1
sS'VOG5376'
p1084
I2
sS'VOG5377'
p1085
I0
sS'VOG5374'
p1086
I1
sS'VOG5375'
p1087
I1
sS'VOG5372'
p1088
I1
sS'VOG5371'
p1089
I0
sS'VOG5344'
p1090
I0
sS'VOG5688'
p1091
I0
sS'VOG5689'
p1092
I2
sS'VOG5686'
p1093
I1
sS'VOG5687'
p1094
I1
sS'VOG5684'
p1095
I0
sS'VOG5685'
p1096
I0
sS'VOG5682'
p1097
I0
sS'VOG5683'
p1098
I0
sS'VOG5680'
p1099
I5
sS'VOG5681'
p1100
I0
sS'VOG5428'
p1101
I0
sS'VOG5429'
p1102
I0
sS'VOG5750'
p1103
I0
sS'VOG5203'
p1104
I0
sS'VOG5200'
p1105
I0
sS'VOG5753'
p1106
I1
sS'VOG5206'
p1107
I0
sS'VOG5755'
p1108
I0
sS'VOG5756'
p1109
I0
sS'VOG5205'
p1110
I0
sS'VOG4371'
p1111
I0
sS'VOG5759'
p1112
I1
sS'VOG5208'
p1113
I0
sS'VOG4372'
p1114
I0
sS'VOG5424'
p1115
I0
sS'VOG4151'
p1116
I0
sS'VOG4150'
p1117
I0
sS'VOG4938'
p1118
I0
sS'VOG4154'
p1119
I0
sS'VOG4409'
p1120
I0
sS'VOG4408'
p1121
I0
sS'VOG4159'
p1122
I0
sS'VOG4406'
p1123
I0
sS'VOG3682'
p1124
I2
sS'VOG3683'
p1125
I2
sS'VOG4403'
p1126
I0
sS'VOG4402'
p1127
I0
sS'VOG4401'
p1128
I0
sS'VOG4521'
p1129
I0
sS'VOG5978'
p1130
I0
sS'VOG5979'
p1131
I0
sS'VOG5970'
p1132
I0
sS'VOG5971'
p1133
I0
sS'VOG5972'
p1134
I0
sS'VOG5973'
p1135
I1
sS'VOG5974'
p1136
I1
sS'VOG5975'
p1137
I0
sS'VOG5976'
p1138
I0
sS'VOG5977'
p1139
I0
sS'VOG4083'
p1140
I0
sS'VOG4080'
p1141
I0
sS'VOG4086'
p1142
I0
sS'VOG4085'
p1143
I0
sS'VOG4084'
p1144
I0
sS'VOG4088'
p1145
I0
sS'VOG3756'
p1146
I2
sS'VOG3754'
p1147
I2
sS'VOG3755'
p1148
I2
sS'VOG4576'
p1149
I1
sS'VOG4575'
p1150
I0
sS'VOG4574'
p1151
I1
sS'VOG4578'
p1152
I1
sS'VOG4889'
p1153
I2
sS'VOG4888'
p1154
I2
sS'VOG2935'
p1155
I1
sS'VOG4882'
p1156
I1
sS'VOG2937'
p1157
I1
sS'VOG4880'
p1158
I0
sS'VOG4887'
p1159
I0
sS'VOG2930'
p1160
I1
sS'VOG4885'
p1161
I0
sS'VOG4884'
p1162
I1
sS'VOG3356'
p1163
I6
sS'VOG5419'
p1164
I1
sS'VOG3355'
p1165
I6
sS'VOG4799'
p1166
I1
sS'VOG4798'
p1167
I0
sS'VOG4794'
p1168
I0
sS'VOG4793'
p1169
I1
sS'VOG4792'
p1170
I0
sS'VOG4790'
p1171
I1
sS'VOG2332'
p1172
I1
sS'VOG2803'
p1173
I1
sS'VOG2802'
p1174
I1
sS'VOG2804'
p1175
I1
sS'VOG2489'
p1176
I1
sS'VOG1993'
p1177
I0
sS'VOG2485'
p1178
I1
sS'VOG2484'
p1179
I1
sS'VOG2487'
p1180
I1
sS'VOG1520'
p1181
I1
sS'VOG2481'
p1182
I1
sS'VOG2482'
p1183
I1
sS'VOG1996'
p1184
I0
sS'VOG4208'
p1185
I0
sS'VOG5330'
p1186
I0
sS'VOG4946'
p1187
I0
sS'VOG1919'
p1188
I0
sS'VOG1629'
p1189
I1
sS'VOG1916'
p1190
I0
sS'VOG1917'
p1191
I0
sS'VOG5885'
p1192
I0
sS'VOG1044'
p1193
I1
sS'VOG1045'
p1194
I6
sS'VOG1049'
p1195
I1
sS'VOG5887'
p1196
I0
sS'VOG4201'
p1197
I0
sS'VOG1681'
p1198
I0
sS'VOG1684'
p1199
I0
sS'VOG4200'
p1200
I0
sS'VOG2791'
p1201
I0
sS'VOG2793'
p1202
I0
sS'VOG2792'
p1203
I0
sS'VOG2795'
p1204
I0
sS'VOG2794'
p1205
I0
sS'VOG3824'
p1206
I0
sS'VOG3822'
p1207
I0
sS'VOG3843'
p1208
I0
sS'VOG3847'
p1209
I0
sS'VOG0403'
p1210
I0
sS'VOG0402'
p1211
I0
sS'VOG0401'
p1212
I0
sS'VOG0400'
p1213
I0
sS'VOG0407'
p1214
I0
sS'VOG0404'
p1215
I0
sS'VOG0409'
p1216
I0
sS'VOG0408'
p1217
I0
sS'VOG2665'
p1218
I1
sS'VOG2661'
p1219
I1
sS'VOG2660'
p1220
I1
sS'VOG1468'
p1221
I0
sS'VOG1467'
p1222
I0
sS'VOG1462'
p1223
I0
sS'VOG2668'
p1224
I1
sS'VOG1460'
p1225
I0
sS'VOG1461'
p1226
I0
sS'VOG2463'
p1227
I1
sS'VOG1860'
p1228
I0
sS'VOG1861'
p1229
I0
sS'VOG1867'
p1230
I0
sS'VOG1864'
p1231
I0
sS'VOG0315'
p1232
I1
sS'VOG0311'
p1233
I1
sS'VOG1261'
p1234
I1
sS'VOG1262'
p1235
I1
sS'VOG1263'
p1236
I1
sS'VOG1266'
p1237
I1
sS'VOG0793'
p1238
I1
sS'VOG0792'
p1239
I1
sS'VOG0791'
p1240
I1
sS'VOG0790'
p1241
I1
sS'VOG0797'
p1242
I1
sS'VOG0795'
p1243
I1
sS'VOG0794'
p1244
I1
sS'VOG0799'
p1245
I1
sS'VOG5569'
p1246
I1
sS'VOG5565'
p1247
I0
sS'VOG5564'
p1248
I0
sS'VOG5561'
p1249
I2
sS'VOG5560'
p1250
I0
sS'VOG5162'
p1251
I0
sS'VOG5161'
p1252
I0
sS'VOG5167'
p1253
I0
sS'VOG5166'
p1254
I0
sS'VOG5165'
p1255
I0
sS'VOG5164'
p1256
I0
sS'VOG5169'
p1257
I0
sS'VOG5309'
p1258
I0
sS'VOG5308'
p1259
I0
sS'VOG5303'
p1260
I1
sS'VOG5302'
p1261
I0
sS'VOG5307'
p1262
I0
sS'VOG5305'
p1263
I2
sS'VOG0134'
p1264
I0
sS'VOG0133'
p1265
I0
sS'VOG0131'
p1266
I0
sS'VOG0139'
p1267
I0
sS'VOG5768'
p1268
I0
sS'VOG5765'
p1269
I0
sS'VOG5766'
p1270
I0
sS'VOG5761'
p1271
I0
sS'VOG5760'
p1272
I0
sS'VOG5763'
p1273
I0
sS'VOG5945'
p1274
I1
sS'VOG5416'
p1275
I0
sS'VOG5415'
p1276
I0
sS'VOG5946'
p1277
I0
sS'VOG4418'
p1278
I0
sS'VOG5940'
p1279
I1
sS'VOG5943'
p1280
I0
sS'VOG4149'
p1281
I0
sS'VOG4146'
p1282
I0
sS'VOG4416'
p1283
I0
sS'VOG4417'
p1284
I0
sS'VOG4410'
p1285
I0
sS'VOG4411'
p1286
I0
sS'VOG4140'
p1287
I0
sS'VOG5784'
p1288
I0
sS'VOG5783'
p1289
I0
sS'VOG5780'
p1290
I1
sS'VOG5789'
p1291
I0
sS'VOG4090'
p1292
I0
sS'VOG4093'
p1293
I0
sS'VOG4094'
p1294
I0
sS'VOG4097'
p1295
I0
sS'VOG4099'
p1296
I0
sS'VOG4560'
p1297
I1
sS'VOG4569'
p1298
I1
sS'VOG0238'
p1299
I0
sS'VOG3785'
p1300
I0
sS'VOG3789'
p1301
I0
sS'VOG3788'
p1302
I0
sS'VOG3034'
p1303
I1
sS'VOG3313'
p1304
I2
sS'VOG5984'
p1305
I0
sS'VOG4898'
p1306
I0
sS'VOG4899'
p1307
I0
sS'VOG2928'
p1308
I1
sS'VOG2929'
p1309
I1
sS'VOG4891'
p1310
I1
sS'VOG4892'
p1311
I1
sS'VOG4893'
p1312
I0
sS'VOG4894'
p1313
I0
sS'VOG2927'
p1314
I1
sS'VOG4896'
p1315
I0
sS'VOG4897'
p1316
I0
sS'VOG1329'
p1317
I1
sS'VOG3327'
p1318
I0
sS'VOG4789'
p1319
I2
sS'VOG4784'
p1320
I0
sS'VOG4785'
p1321
I0
sS'VOG4786'
p1322
I0
sS'VOG4787'
p1323
I0
sS'VOG4781'
p1324
I0
sS'VOG4783'
p1325
I1
sS'VOG2320'
p1326
I2
sS'VOG2323'
p1327
I2
sS'VOG2325'
p1328
I2
sS'VOG2326'
p1329
I2
sS'VOG3251'
p1330
I0
sS'VOG2998'
p1331
I1
sS'VOG0117'
p1332
I0
sS'VOG2499'
p1333
I1
sS'VOG2492'
p1334
I1
sS'VOG2493'
p1335
I1
sS'VOG2490'
p1336
I1
sS'VOG2491'
p1337
I1
sS'VOG2497'
p1338
I1
sS'VOG2494'
p1339
I1
sS'VOG2785'
p1340
I1
sS'VOG2783'
p1341
I1
sS'VOG2780'
p1342
I1
sS'VOG1074'
p1343
I2
sS'VOG1076'
p1344
I2
sS'VOG1073'
p1345
I2
sS'VOG2078'
p1346
I1
sS'VOG2072'
p1347
I0
sS'VOG1673'
p1348
I1
sS'VOG2075'
p1349
I1
sS'VOG1670'
p1350
I1
sS'VOG5258'
p1351
I1
sS'VOG0410'
p1352
I0
sS'VOG0411'
p1353
I0
sS'VOG0412'
p1354
I0
sS'VOG0413'
p1355
I0
sS'VOG0414'
p1356
I0
sS'VOG0415'
p1357
I0
sS'VOG0416'
p1358
I0
sS'VOG0417'
p1359
I0
sS'VOG0418'
p1360
I0
sS'VOG2672'
p1361
I1
sS'VOG2673'
p1362
I1
sS'VOG1419'
p1363
I1
sS'VOG2671'
p1364
I1
sS'VOG2676'
p1365
I1
sS'VOG2674'
p1366
I1
sS'VOG2678'
p1367
I1
sS'VOG1416'
p1368
I0
sS'VOG2474'
p1369
I1
sS'VOG4040'
p1370
I0
sS'VOG1899'
p1371
I1
sS'VOG1898'
p1372
I1
sS'VOG1897'
p1373
I1
sS'VOG1895'
p1374
I1
sS'VOG1893'
p1375
I1
sS'VOG1892'
p1376
I1
sS'VOG1890'
p1377
I1
sS'VOG0374'
p1378
I0
sS'VOG1527'
p1379
I1
sS'VOG1525'
p1380
I1
sS'VOG1256'
p1381
I1
sS'VOG1251'
p1382
I1
sS'VOG1250'
p1383
I1
sS'VOG1252'
p1384
I1
sS'VOG1259'
p1385
I1
sS'VOG1258'
p1386
I1
sS'VOG0302'
p1387
I2
sS'VOG1528'
p1388
I1
sS'VOG1095'
p1389
I1
sS'VOG1094'
p1390
I1
sS'VOG1092'
p1391
I1
sS'VOG1099'
p1392
I1
sS'VOG0784'
p1393
I1
sS'VOG0787'
p1394
I1
sS'VOG0789'
p1395
I1
sS'VOG5578'
p1396
I1
sS'VOG5579'
p1397
I1
sS'VOG5574'
p1398
I1
sS'VOG5575'
p1399
I1
sS'VOG5576'
p1400
I1
sS'VOG5577'
p1401
I1
sS'VOG5570'
p1402
I1
sS'VOG5571'
p1403
I0
sS'VOG5572'
p1404
I1
sS'VOG5573'
p1405
I1
sS'VOG5170'
p1406
I2
sS'VOG5171'
p1407
I0
sS'VOG5172'
p1408
I0
sS'VOG5173'
p1409
I0
sS'VOG5174'
p1410
I1
sS'VOG5175'
p1411
I0
sS'VOG5176'
p1412
I1
sS'VOG5177'
p1413
I0
sS'VOG5178'
p1414
I0
sS'VOG5179'
p1415
I0
sS'VOG0237'
p1416
I0
sS'VOG5389'
p1417
I0
sS'VOG5319'
p1418
I0
sS'VOG0040'
p1419
I2
sS'VOG5310'
p1420
I0
sS'VOG5312'
p1421
I1
sS'VOG5313'
p1422
I1
sS'VOG5314'
p1423
I0
sS'VOG5315'
p1424
I2
sS'VOG5317'
p1425
I1
sS'VOG4526'
p1426
I0
sS'VOG0125'
p1427
I0
sS'VOG0126'
p1428
I0
sS'VOG0127'
p1429
I0
sS'VOG0122'
p1430
I0
sS'VOG0573'
p1431
I0
sS'VOG4319'
p1432
I1
sS'VOG0128'
p1433
I0
sS'VOG0129'
p1434
I0
sS'VOG5778'
p1435
I0
sS'VOG5779'
p1436
I0
sS'VOG5772'
p1437
I0
sS'VOG5770'
p1438
I0
sS'VOG5771'
p1439
I0
sS'VOG5952'
p1440
I1
sS'VOG5405'
p1441
I0
sS'VOG4139'
p1442
I0
sS'VOG4138'
p1443
I0
sS'VOG5400'
p1444
I1
sS'VOG5401'
p1445
I0
sS'VOG5402'
p1446
I1
sS'VOG5403'
p1447
I1
sS'VOG4133'
p1448
I0
sS'VOG4420'
p1449
I0
sS'VOG5958'
p1450
I1
sS'VOG4130'
p1451
I0
sS'VOG4425'
p1452
I0
sS'VOG4136'
p1453
I0
sS'VOG4135'
p1454
I0
sS'VOG5794'
p1455
I1
sS'VOG5795'
p1456
I1
sS'VOG5796'
p1457
I1
sS'VOG5797'
p1458
I1
sS'VOG5791'
p1459
I0
sS'VOG5792'
p1460
I0
sS'VOG5793'
p1461
I1
sS'VOG4951'
p1462
I0
sS'VOG4950'
p1463
I0
sS'VOG5798'
p1464
I0
sS'VOG5799'
p1465
I0
sS'VOG4558'
p1466
I1
sS'VOG4228'
p1467
I1
sS'VOG4555'
p1468
I1
sS'VOG4554'
p1469
I1
sS'VOG4557'
p1470
I1
sS'VOG4553'
p1471
I1
sS'VOG4046'
p1472
I0
sS'VOG4045'
p1473
I0
sS'VOG4044'
p1474
I0
sS'VOG4043'
p1475
I0
sS'VOG4042'
p1476
I0
sS'VOG3798'
p1477
I0
sS'VOG3799'
p1478
I0
sS'VOG3796'
p1479
I0
sS'VOG3797'
p1480
I0
sS'VOG3794'
p1481
I2
sS'VOG3027'
p1482
I1
sS'VOG5950'
p1483
I0
sS'VOG3790'
p1484
I0
sS'VOG4048'
p1485
I0
sS'VOG5957'
p1486
I0
sS'VOG4421'
p1487
I0
sS'VOG4132'
p1488
I0
sS'VOG3339'
p1489
I2
sS'VOG4423'
p1490
I0
sS'VOG5959'
p1491
I0
sS'VOG2318'
p1492
I2
sS'VOG2315'
p1493
I2
sS'VOG2314'
p1494
I2
sS'VOG2317'
p1495
I2
sS'VOG2310'
p1496
I2
sS'VOG4424'
p1497
I0
sS'VOG2861'
p1498
I1
sS'VOG2860'
p1499
I1
sS'VOG2866'
p1500
I1
sS'VOG2864'
p1501
I1
sS'VOG1831'
p1502
I0
sS'VOG2044'
p1503
I1
sS'VOG2041'
p1504
I1
sS'VOG2040'
p1505
I1
sS'VOG2042'
p1506
I1
sS'VOG1063'
p1507
I2
sS'VOG2049'
p1508
I1
sS'VOG1668'
p1509
I1
sS'VOG1666'
p1510
I1
sS'VOG1661'
p1511
I1
sS'VOG1662'
p1512
I1
sS'VOG1663'
p1513
I1
sS'VOG1445'
p1514
I0
sS'VOG3804'
p1515
I0
sS'VOG2312'
p1516
I2
sS'VOG3803'
p1517
I0
sS'VOG3801'
p1518
I0
sS'VOG0429'
p1519
I0
sS'VOG0428'
p1520
I0
sS'VOG0939'
p1521
I2
sS'VOG0425'
p1522
I0
sS'VOG0936'
p1523
I1
sS'VOG0427'
p1524
I0
sS'VOG0426'
p1525
I0
sS'VOG0421'
p1526
I0
sS'VOG0930'
p1527
I1
sS'VOG2689'
p1528
I1
sS'VOG2688'
p1529
I1
sS'VOG2687'
p1530
I1
sS'VOG2686'
p1531
I1
sS'VOG2685'
p1532
I1
sS'VOG2684'
p1533
I1
sS'VOG2683'
p1534
I1
sS'VOG2682'
p1535
I1
sS'VOG1406'
p1536
I2
sS'VOG1407'
p1537
I2
sS'VOG2441'
p1538
I0
sS'VOG2440'
p1539
I0
sS'VOG2444'
p1540
I0
sS'VOG2447'
p1541
I0
sS'VOG1790'
p1542
I0
sS'VOG2448'
p1543
I0
sS'VOG1796'
p1544
I0
sS'VOG1888'
p1545
I1
sS'VOG0689'
p1546
I1
sS'VOG0681'
p1547
I4
sS'VOG0686'
p1548
I0
sS'VOG1242'
p1549
I1
sS'VOG1243'
p1550
I1
sS'VOG1241'
p1551
I1
sS'VOG1246'
p1552
I1
sS'VOG1248'
p1553
I1
sS'VOG1249'
p1554
I1
sS'VOG0337'
p1555
I7
sS'VOG1085'
p1556
I0
sS'VOG1080'
p1557
I2
sS'VOG1088'
p1558
I0
sS'VOG4659'
p1559
I1
sS'VOG5549'
p1560
I2
sS'VOG5548'
p1561
I0
sS'VOG5541'
p1562
I0
sS'VOG5540'
p1563
I0
sS'VOG5543'
p1564
I1
sS'VOG5545'
p1565
I0
sS'VOG5547'
p1566
I0
sS'VOG5546'
p1567
I0
sS'VOG0205'
p1568
I1
sS'VOG3987'
p1569
I1
sS'VOG0207'
p1570
I1
sS'VOG0202'
p1571
I1
sS'VOG0209'
p1572
I1
sS'VOG2102'
p1573
I2
sS'VOG3984'
p1574
I1
sS'VOG5149'
p1575
I0
sS'VOG4041'
p1576
I0
sS'VOG1336'
p1577
I1
sS'VOG1337'
p1578
I1
sS'VOG5147'
p1579
I0
sS'VOG5146'
p1580
I0
sS'VOG5141'
p1581
I0
sS'VOG5140'
p1582
I0
sS'VOG5143'
p1583
I0
sS'VOG3982'
p1584
I1
sS'VOG3024'
p1585
I1
sS'VOG3025'
p1586
I1
sS'VOG3793'
p1587
I2
sS'VOG3791'
p1588
I0
sS'VOG0113'
p1589
I0
sS'VOG0115'
p1590
I0
sS'VOG0114'
p1591
I0
sS'VOG4306'
p1592
I0
sS'VOG2959'
p1593
I1
sS'VOG0118'
p1594
I0
sS'VOG5431'
p1595
I0
sS'VOG4947'
p1596
I0
sS'VOG5433'
p1597
I1
sS'VOG5432'
p1598
I1
sS'VOG4942'
p1599
I3
sS'VOG5434'
p1600
I2
sS'VOG5437'
p1601
I0
sS'VOG5436'
p1602
I0
sS'VOG4120'
p1603
I0
sS'VOG4121'
p1604
I0
sS'VOG4122'
p1605
I0
sS'VOG4123'
p1606
I0
sS'VOG4124'
p1607
I0
sS'VOG4125'
p1608
I0
sS'VOG4948'
p1609
I0
sS'VOG4949'
p1610
I0
sS'VOG5325'
p1611
I0
sS'VOG5892'
p1612
I0
sS'VOG5891'
p1613
I0
sS'VOG5890'
p1614
I0
sS'VOG5897'
p1615
I0
sS'VOG5896'
p1616
I0
sS'VOG5895'
p1617
I0
sS'VOG5894'
p1618
I0
sS'VOG5899'
p1619
I0
sS'VOG5898'
p1620
I0
sS'VOG5329'
p1621
I0
sS'VOG5328'
p1622
I0
sS'VOG4232'
p1623
I1
sS'VOG4054'
p1624
I0
sS'VOG4055'
p1625
I0
sS'VOG4056'
p1626
I0
sS'VOG4050'
p1627
I0
sS'VOG4051'
p1628
I0
sS'VOG4052'
p1629
I0
sS'VOG3010'
p1630
I1
sS'VOG4058'
p1631
I0
sS'VOG3017'
p1632
I1
sS'VOG3016'
p1633
I1
sS'VOG3491'
p1634
I2
sS'VOG5647'
p1635
I0
sS'VOG3653'
p1636
I1
sS'VOG2306'
p1637
I2
sS'VOG2870'
p1638
I1
sS'VOG4032'
p1639
I0
sS'VOG2873'
p1640
I1
sS'VOG2876'
p1641
I1
sS'VOG2877'
p1642
I1
sS'VOG2878'
p1643
I1
sS'VOG2879'
p1644
I1
sS'VOG1581'
p1645
I1
sS'VOG0529'
p1646
I1
sS'VOG1630'
p1647
I1
sS'VOG0913'
p1648
I1
sS'VOG2278'
p1649
I0
sS'VOG5712'
p1650
I2
sS'VOG0393'
p1651
I0
sS'VOG4422'
p1652
I0
sS'VOG2052'
p1653
I1
sS'VOG2053'
p1654
I1
sS'VOG2051'
p1655
I1
sS'VOG2056'
p1656
I1
sS'VOG2057'
p1657
I1
sS'VOG2054'
p1658
I1
sS'VOG2059'
p1659
I1
sS'VOG1659'
p1660
I1
sS'VOG1658'
p1661
I1
sS'VOG1651'
p1662
I1
sS'VOG1650'
p1663
I1
sS'VOG1652'
p1664
I1
sS'VOG1655'
p1665
I1
sS'VOG1654'
p1666
I1
sS'VOG1657'
p1667
I1
sS'VOG3870'
p1668
I0
sS'VOG3986'
p1669
I1
sS'VOG0438'
p1670
I0
sS'VOG1436'
p1671
I0
sS'VOG1433'
p1672
I0
sS'VOG0924'
p1673
I1
sS'VOG0433'
p1674
I0
sS'VOG0926'
p1675
I1
sS'VOG0927'
p1676
I1
sS'VOG1439'
p1677
I0
sS'VOG0437'
p1678
I0
sS'VOG0922'
p1679
I1
sS'VOG2698'
p1680
I1
sS'VOG2696'
p1681
I1
sS'VOG2697'
p1682
I1
sS'VOG2690'
p1683
I1
sS'VOG2691'
p1684
I1
sS'VOG2692'
p1685
I1
sS'VOG2456'
p1686
I0
sS'VOG2457'
p1687
I0
sS'VOG2454'
p1688
I0
sS'VOG2452'
p1689
I0
sS'VOG2453'
p1690
I0
sS'VOG2451'
p1691
I0
sS'VOG3983'
p1692
I1
sS'VOG1508'
p1693
I0
sS'VOG4696'
p1694
I0
sS'VOG5379'
p1695
I0
sS'VOG1801'
p1696
I0
sS'VOG5953'
p1697
I0
sS'VOG4670'
p1698
I1
sS'VOG4671'
p1699
I0
sS'VOG0740'
p1700
I1
sS'VOG4673'
p1701
I1
sS'VOG0749'
p1702
I1
sS'VOG5159'
p1703
I0
sS'VOG5152'
p1704
I0
sS'VOG5153'
p1705
I0
sS'VOG5150'
p1706
I0
sS'VOG5621'
p1707
I0
sS'VOG5157'
p1708
I1
sS'VOG5154'
p1709
I1
sS'VOG5155'
p1710
I1
sS'VOG0697'
p1711
I1
sS'VOG0695'
p1712
I1
sS'VOG0692'
p1713
I1
sS'VOG0691'
p1714
I1
sS'VOG0108'
p1715
I0
sS'VOG0109'
p1716
I0
sS'VOG0106'
p1717
I0
sS'VOG4334'
p1718
I1
sS'VOG0104'
p1719
I0
sS'VOG0105'
p1720
I0
sS'VOG5555'
p1721
I0
sS'VOG5552'
p1722
I1
sS'VOG5550'
p1723
I2
sS'VOG2948'
p1724
I1
sS'VOG5559'
p1725
I0
sS'VOG4933'
p1726
I0
sS'VOG4932'
p1727
I0
sS'VOG4930'
p1728
I0
sS'VOG4937'
p1729
I0
sS'VOG4936'
p1730
I1
sS'VOG4935'
p1731
I0
sS'VOG4934'
p1732
I1
sS'VOG5426'
p1733
I1
sS'VOG5427'
p1734
I0
sS'VOG4939'
p1735
I1
sS'VOG5425'
p1736
I1
sS'VOG5422'
p1737
I0
sS'VOG5423'
p1738
I0
sS'VOG5420'
p1739
I0
sS'VOG5421'
p1740
I0
sS'VOG1457'
p1741
I0
sS'VOG1104'
p1742
I1
sS'VOG4277'
p1743
I0
sS'VOG5880'
p1744
I0
sS'VOG5881'
p1745
I0
sS'VOG5882'
p1746
I0
sS'VOG5883'
p1747
I0
sS'VOG5884'
p1748
I0
sS'VOG5337'
p1749
I0
sS'VOG5886'
p1750
I0
sS'VOG5335'
p1751
I0
sS'VOG5888'
p1752
I0
sS'VOG5889'
p1753
I0
sS'VOG4203'
p1754
I0
sS'VOG5339'
p1755
I0
sS'VOG4205'
p1756
I0
sS'VOG4204'
p1757
I0
sS'VOG4207'
p1758
I0
sS'VOG4206'
p1759
I0
sS'VOG4062'
p1760
I0
sS'VOG4065'
p1761
I0
sS'VOG4064'
p1762
I0
sS'VOG4067'
p1763
I0
sS'VOG4066'
p1764
I0
sS'VOG4068'
p1765
I0
sS'VOG4591'
p1766
I0
sS'VOG4592'
p1767
I2
sS'VOG4595'
p1768
I0
sS'VOG4594'
p1769
I0
sS'VOG4599'
p1770
I1
sS'VOG5202'
p1771
I0
sS'VOG1109'
p1772
I1
sS'VOG3480'
p1773
I1
sS'VOG4441'
p1774
I2
sS'VOG4116'
p1775
I0
sS'VOG5754'
p1776
I1
sS'VOG4119'
p1777
I0
sS'VOG5207'
p1778
I1
sS'VOG0116'
p1779
I0
sS'VOG2999'
p1780
I1
sS'VOG3467'
p1781
I1
sS'VOG3461'
p1782
I1
sS'VOG3462'
p1783
I1
sS'VOG3463'
p1784
I1
sS'VOG2992'
p1785
I1
sS'VOG2994'
p1786
I1
sS'VOG3970'
p1787
I1
sS'VOG2382'
p1788
I2
sS'VOG5209'
p1789
I0
sS'VOG2849'
p1790
I1
sS'VOG2848'
p1791
I1
sS'VOG3898'
p1792
I0
sS'VOG2845'
p1793
I1
sS'VOG2844'
p1794
I1
sS'VOG2847'
p1795
I1
sS'VOG2846'
p1796
I1
sS'VOG2842'
p1797
I1
sS'VOG3002'
p1798
I1
sS'VOG3000'
p1799
I1
sS'VOG3001'
p1800
I1
sS'VOG4414'
p1801
I0
sS'VOG4018'
p1802
I0
sS'VOG2201'
p1803
I0
sS'VOG2200'
p1804
I0
sS'VOG2389'
p1805
I2
sS'VOG3680'
p1806
I2
sS'VOG3681'
p1807
I2
sS'VOG4405'
p1808
I0
sS'VOG1646'
p1809
I1
sS'VOG1647'
p1810
I1
sS'VOG1644'
p1811
I1
sS'VOG1642'
p1812
I1
sS'VOG1643'
p1813
I1
sS'VOG1641'
p1814
I1
sS'VOG1648'
p1815
I1
sS'VOG1649'
p1816
I1
sS'VOG4016'
p1817
I0
sS'VOG2515'
p1818
I1
sS'VOG4400'
p1819
I0
sS'VOG2513'
p1820
I1
sS'VOG2512'
p1821
I1
sS'VOG2192'
p1822
I0
sS'VOG2191'
p1823
I0
sS'VOG2190'
p1824
I0
sS'VOG2196'
p1825
I0
sS'VOG2195'
p1826
I0
sS'VOG2194'
p1827
I0
sS'VOG2199'
p1828
I0
sS'VOG2198'
p1829
I0
sS'VOG0919'
p1830
I1
sS'VOG0918'
p1831
I1
sS'VOG1426'
p1832
I0
sS'VOG1427'
p1833
I0
sS'VOG1424'
p1834
I0
sS'VOG0911'
p1835
I1
sS'VOG0910'
p1836
I1
sS'VOG1428'
p1837
I0
sS'VOG1429'
p1838
I0
sS'VOG0914'
p1839
I1
sS'VOG0917'
p1840
I1
sS'VOG3916'
p1841
I0
sS'VOG2428'
p1842
I0
sS'VOG5638'
p1843
I0
sS'VOG2423'
p1844
I0
sS'VOG2422'
p1845
I0
sS'VOG2421'
p1846
I0
sS'VOG3918'
p1847
I1
sS'VOG2424'
p1848
I0
sS'VOG0351'
p1849
I0
sS'VOG0356'
p1850
I0
sS'VOG1518'
p1851
I1
sS'VOG1519'
p1852
I1
sS'VOG0598'
p1853
I1
sS'VOG1510'
p1854
I0
sS'VOG3751'
p1855
I2
sS'VOG3124'
p1856
I0
sS'VOG0776'
p1857
I1
sS'VOG1350'
p1858
I0
sS'VOG1352'
p1859
I0
sS'VOG1353'
p1860
I0
sS'VOG1355'
p1861
I0
sS'VOG5181'
p1862
I0
sS'VOG5180'
p1863
I0
sS'VOG5183'
p1864
I0
sS'VOG5182'
p1865
I0
sS'VOG5185'
p1866
I0
sS'VOG5184'
p1867
I0
sS'VOG5187'
p1868
I0
sS'VOG5186'
p1869
I0
sS'VOG5189'
p1870
I0
sS'VOG5188'
p1871
I0
sS'VOG5635'
p1872
I0
sS'VOG5634'
p1873
I0
sS'VOG0178'
p1874
I4
sS'VOG0173'
p1875
I4
sS'VOG0172'
p1876
I4
sS'VOG4320'
p1877
I1
sS'VOG0170'
p1878
I4
sS'VOG0177'
p1879
I4
sS'VOG0176'
p1880
I4
sS'VOG0175'
p1881
I4
sS'VOG0174'
p1882
I4
sS'VOG5523'
p1883
I1
sS'VOG5522'
p1884
I1
sS'VOG5521'
p1885
I0
sS'VOG5527'
p1886
I1
sS'VOG5526'
p1887
I1
sS'VOG5525'
p1888
I0
sS'VOG5524'
p1889
I1
sS'VOG5528'
p1890
I2
sS'VOG4692'
p1891
I1
sS'VOG4921'
p1892
I0
sS'VOG4922'
p1893
I0
sS'VOG5458'
p1894
I0
sS'VOG4924'
p1895
I0
sS'VOG4697'
p1896
I0
sS'VOG4927'
p1897
I0
sS'VOG4928'
p1898
I2
sS'VOG5980'
p1899
I1
sS'VOG4698'
p1900
I0
sS'VOG5450'
p1901
I0
sS'VOG5457'
p1902
I0
sS'VOG5456'
p1903
I0
sS'VOG5455'
p1904
I0
sS'VOG5454'
p1905
I1
sS'VOG3438'
p1906
I1
sS'VOG0006'
p1907
I5
sS'VOG4214'
p1908
I0
sS'VOG4212'
p1909
I0
sS'VOG4213'
p1910
I0
sS'VOG4210'
p1911
I0
sS'VOG4520'
p1912
I0
sS'VOG2681'
p1913
I1
sS'VOG4078'
p1914
I0
sS'VOG4079'
p1915
I0
sS'VOG4077'
p1916
I0
sS'VOG4074'
p1917
I0
sS'VOG4072'
p1918
I0
sS'VOG4070'
p1919
I0
sS'VOG4071'
p1920
I0
sS'VOG5856'
p1921
I1
sS'VOG5855'
p1922
I1
sS'VOG5854'
p1923
I0
sS'VOG5853'
p1924
I1
sS'VOG5852'
p1925
I1
sS'VOG5851'
p1926
I2
sS'VOG5850'
p1927
I0
sS'VOG4586'
p1928
I1
sS'VOG4584'
p1929
I0
sS'VOG4857'
p1930
I0
sS'VOG4582'
p1931
I1
sS'VOG4583'
p1932
I1
sS'VOG5858'
p1933
I0
sS'VOG3679'
p1934
I2
sS'VOG3678'
p1935
I2
sS'VOG4100'
p1936
I0
sS'VOG4101'
p1937
I0
sS'VOG4106'
p1938
I0
sS'VOG4104'
p1939
I0
sS'VOG4105'
p1940
I0
sS'VOG4458'
p1941
I0
sS'VOG4108'
p1942
I0
sS'VOG4109'
p1943
I0
sS'VOG3675'
p1944
I2
sS'VOG3677'
p1945
I2
sS'VOG2988'
p1946
I1
sS'VOG3453'
p1947
I1
sS'VOG3452'
p1948
I1
sS'VOG4523'
p1949
I0
sS'VOG2980'
p1950
I1
sS'VOG2981'
p1951
I1
sS'VOG3105'
p1952
I0
sS'VOG3102'
p1953
I0
sS'VOG3101'
p1954
I0
sS'VOG2858'
p1955
I1
sS'VOG2859'
p1956
I1
sS'VOG5639'
p1957
I0
sS'VOG2852'
p1958
I1
sS'VOG2853'
p1959
I1
sS'VOG2850'
p1960
I1
sS'VOG2851'
p1961
I1
sS'VOG2856'
p1962
I1
sS'VOG2857'
p1963
I1
sS'VOG2854'
p1964
I1
sS'VOG2855'
p1965
I1
sS'VOG3077'
p1966
I0
sS'VOG3074'
p1967
I0
sS'VOG2212'
p1968
I0
sS'VOG2215'
p1969
I0
sS'VOG2217'
p1970
I0
sS'VOG2219'
p1971
I1
sS'VOG5740'
p1972
I0
sS'VOG5949'
p1973
I0
sS'VOG3292'
p1974
I0
sS'VOG3291'
p1975
I0
sS'VOG1985'
p1976
I0
sS'VOG1632'
p1977
I1
sS'VOG1631'
p1978
I1
sS'VOG1986'
p1979
I0
sS'VOG1637'
p1980
I1
sS'VOG1980'
p1981
I0
sS'VOG1635'
p1982
I1
sS'VOG1982'
p1983
I0
sS'VOG1638'
p1984
I1
sS'VOG1989'
p1985
I0
sS'VOG1988'
p1986
I0
sS'VOG4886'
p1987
I0
sS'VOG3854'
p1988
I0
sS'VOG3857'
p1989
I0
sS'VOG2508'
p1990
I1
sS'VOG2505'
p1991
I1
sS'VOG2506'
p1992
I1
sS'VOG2507'
p1993
I1
sS'VOG3859'
p1994
I0
sS'VOG2501'
p1995
I1
sS'VOG2502'
p1996
I1
sS'VOG2503'
p1997
I1
sS'VOG0541'
p1998
I1
sS'VOG2180'
p1999
I1
sS'VOG0937'
p2000
I1
sS'VOG2183'
p2001
I1
sS'VOG2184'
p2002
I1
sS'VOG2185'
p2003
I1
sS'VOG0424'
p2004
I0
sS'VOG3963'
p2005
I1
sS'VOG0933'
p2006
I1
sS'VOG1186'
p2007
I1
sS'VOG4329'
p2008
I1
sS'VOG1743'
p2009
I0
sS'VOG1741'
p2010
I0
sS'VOG5145'
p2011
I0
sS'VOG2438'
p2012
I0
sS'VOG3920'
p2013
I1
sS'VOG3923'
p2014
I1
sS'VOG3922'
p2015
I1
sS'VOG3925'
p2016
I1
sS'VOG3924'
p2017
I1
sS'VOG3927'
p2018
I1
sS'VOG3926'
p2019
I1
sS'VOG3929'
p2020
I1
sS'VOG3928'
p2021
I1
sS'VOG2432'
p2022
I0
sS'VOG2434'
p2023
I0
sS'VOG2436'
p2024
I0
sS'VOG0171'
p2025
I4
sS'VOG0582'
p2026
I0
sS'VOG0583'
p2027
I0
sS'VOG0584'
p2028
I0
sS'VOG1563'
p2029
I1
sS'VOG0588'
p2030
I0
sS'VOG1403'
p2031
I0
sS'VOG1405'
p2032
I0
sS'VOG0906'
p2033
I1
sS'VOG0907'
p2034
I1
sS'VOG0904'
p2035
I1
sS'VOG0905'
p2036
I1
sS'VOG0902'
p2037
I1
sS'VOG0903'
p2038
I1
sS'VOG0900'
p2039
I1
sS'VOG0901'
p2040
I1
sS'VOG5138'
p2041
I0
sS'VOG2680'
p2042
I1
sS'VOG0908'
p2043
I1
sS'VOG0909'
p2044
I1
sS'VOG1799'
p2045
I0
sS'VOG5642'
p2046
I0
sS'VOG2234'
p2047
I4
sS'VOG1362'
p2048
I0
sS'VOG0766'
p2049
I0
sS'VOG0764'
p2050
I0
sS'VOG2235'
p2051
I4
sS'VOG1369'
p2052
I0
sS'VOG1167'
p2053
I1
sS'VOG1166'
p2054
I1
sS'VOG1165'
p2055
I1
sS'VOG5137'
p2056
I0
sS'VOG1160'
p2057
I1
sS'VOG5646'
p2058
I0
sS'VOG1168'
p2059
I1
sS'VOG5644'
p2060
I0
sS'VOG5133'
p2061
I0
sS'VOG4920'
p2062
I0
sS'VOG5628'
p2063
I1
sS'VOG5629'
p2064
I1
sS'VOG5198'
p2065
I0
sS'VOG5199'
p2066
I0
sS'VOG5624'
p2067
I2
sS'VOG5197'
p2068
I0
sS'VOG5194'
p2069
I0
sS'VOG5627'
p2070
I1
sS'VOG5192'
p2071
I0
sS'VOG5459'
p2072
I0
sS'VOG5190'
p2073
I0
sS'VOG5191'
p2074
I0
sS'VOG4923'
p2075
I1
sS'VOG5350'
p2076
I1
sS'VOG5351'
p2077
I0
sS'VOG0168'
p2078
I4
sS'VOG0169'
p2079
I4
sS'VOG0162'
p2080
I0
sS'VOG4695'
p2081
I0
sS'VOG0167'
p2082
I8
sS'VOG5981'
p2083
I1
sS'VOG5533'
p2084
I0
sS'VOG5537'
p2085
I2
sS'VOG5538'
p2086
I2
sS'VOG5539'
p2087
I1
sS'VOG5983'
p2088
I0
sS'VOG5449'
p2089
I1
sS'VOG5982'
p2090
I0
sS'VOG4918'
p2091
I0
sS'VOG4668'
p2092
I5
sS'VOG4915'
p2093
I0
sS'VOG4666'
p2094
I1
sS'VOG5442'
p2095
I0
sS'VOG4664'
p2096
I2
sS'VOG4663'
p2097
I1
sS'VOG4662'
p2098
I1
sS'VOG4913'
p2099
I0
sS'VOG4912'
p2100
I0
sS'VOG5986'
p2101
I1
sS'VOG0014'
p2102
I5
sS'VOG0016'
p2103
I2
sS'VOG0017'
p2104
I2
sS'VOG0013'
p2105
I5
sS'VOG0019'
p2106
I2
sS'VOG4869'
p2107
I0
sS'VOG5845'
p2108
I1
sS'VOG5846'
p2109
I1
sS'VOG5840'
p2110
I3
sS'VOG5841'
p2111
I1
sS'VOG5842'
p2112
I2
sS'VOG5843'
p2113
I1
sS'VOG4860'
p2114
I0
sS'VOG4862'
p2115
I0
sS'VOG4865'
p2116
I0
sS'VOG5849'
p2117
I1
sS'VOG4867'
p2118
I0
sS'VOG4866'
p2119
I1
sS'VOG4469'
p2120
I0
sS'VOG4468'
p2121
I0
sS'VOG4464'
p2122
I0
sS'VOG4460'
p2123
I0
sS'VOG4463'
p2124
I0
sS'VOG4462'
p2125
I0
sS'VOG4717'
p2126
I0
sS'VOG4716'
p2127
I1
sS'VOG4715'
p2128
I0
sS'VOG4713'
p2129
I1
sS'VOG4712'
p2130
I0
sS'VOG4217'
p2131
I1
sS'VOG0005'
p2132
I5
sS'VOG4719'
p2133
I0
sS'VOG4718'
p2134
I1
sS'VOG0002'
p2135
I5
sS'VOG3594'
p2136
I0
sS'VOG3064'
p2137
I0
sS'VOG3066'
p2138
I0
sS'VOG2881'
p2139
I1
sS'VOG2880'
p2140
I1
sS'VOG2883'
p2141
I1
sS'VOG2887'
p2142
I1
sS'VOG2889'
p2143
I1
sS'VOG2888'
p2144
I1
sS'VOG2897'
p2145
I1
sS'VOG2222'
p2146
I1
sS'VOG1967'
p2147
I0
sS'VOG3285'
p2148
I1
sS'VOG3287'
p2149
I1
sS'VOG1992'
p2150
I0
sS'VOG1621'
p2151
I1
sS'VOG1622'
p2152
I1
sS'VOG1623'
p2153
I1
sS'VOG1624'
p2154
I1
sS'VOG1625'
p2155
I1
sS'VOG1626'
p2156
I1
sS'VOG1627'
p2157
I1
sS'VOG1628'
p2158
I1
sS'VOG2080'
p2159
I1
sS'VOG1998'
p2160
I0
sS'VOG2086'
p2161
I2
sS'VOG2539'
p2162
I1
sS'VOG2538'
p2163
I1
sS'VOG2528'
p2164
I1
sS'VOG3844'
p2165
I0
sS'VOG2531'
p2166
I1
sS'VOG2533'
p2167
I1
sS'VOG2534'
p2168
I1
sS'VOG2537'
p2169
I1
sS'VOG4603'
p2170
I1
sS'VOG5739'
p2171
I0
sS'VOG1190'
p2172
I0
sS'VOG1191'
p2173
I0
sS'VOG2405'
p2174
I2
sS'VOG2404'
p2175
I2
sS'VOG2401'
p2176
I2
sS'VOG2152'
p2177
I1
sS'VOG2403'
p2178
I2
sS'VOG2409'
p2179
I2
sS'VOG3938'
p2180
I1
sS'VOG3939'
p2181
I1
sS'VOG3936'
p2182
I1
sS'VOG3937'
p2183
I1
sS'VOG3934'
p2184
I1
sS'VOG3935'
p2185
I1
sS'VOG3932'
p2186
I1
sS'VOG3933'
p2187
I1
sS'VOG3930'
p2188
I1
sS'VOG0809'
p2189
I1
sS'VOG0808'
p2190
I1
sS'VOG0375'
p2191
I0
sS'VOG0806'
p2192
I1
sS'VOG0804'
p2193
I1
sS'VOG0371'
p2194
I0
sS'VOG0370'
p2195
I0
sS'VOG0801'
p2196
I1
sS'VOG0800'
p2197
I1
sS'VOG0577'
p2198
I0
sS'VOG0574'
p2199
I0
sS'VOG1574'
p2200
I1
sS'VOG1575'
p2201
I1
sS'VOG0571'
p2202
I0
sS'VOG1577'
p2203
I1
sS'VOG0976'
p2204
I0
sS'VOG4858'
p2205
I0
sS'VOG4859'
p2206
I0
sS'VOG1372'
p2207
I0
sS'VOG1373'
p2208
I0
sS'VOG1370'
p2209
I0
sS'VOG1371'
p2210
I0
sS'VOG1374'
p2211
I0
sS'VOG1375'
p2212
I0
sS'VOG0713'
p2213
I1
sS'VOG0712'
p2214
I1
sS'VOG0717'
p2215
I1
sS'VOG0714'
p2216
I1
sS'VOG1175'
p2217
I1
sS'VOG1176'
p2218
I1
sS'VOG0488'
p2219
I0
sS'VOG1172'
p2220
I1
sS'VOG1173'
p2221
I1
sS'VOG0483'
p2222
I0
sS'VOG0482'
p2223
I0
sS'VOG0481'
p2224
I0
sS'VOG0480'
p2225
I0
sS'VOG0487'
p2226
I0
sS'VOG0486'
p2227
I0
sS'VOG0485'
p2228
I0
sS'VOG0484'
p2229
I0
sS'VOG5619'
p2230
I0
sS'VOG5618'
p2231
I0
sS'VOG5613'
p2232
I4
sS'VOG5612'
p2233
I0
sS'VOG5615'
p2234
I2
sS'VOG0396'
p2235
I0
sS'VOG0395'
p2236
I0
sS'VOG0394'
p2237
I0
sS'VOG5299'
p2238
I1
sS'VOG5298'
p2239
I0
sS'VOG0390'
p2240
I0
sS'VOG5294'
p2241
I0
sS'VOG5291'
p2242
I0
sS'VOG5290'
p2243
I0
sS'VOG5293'
p2244
I1
sS'VOG0398'
p2245
I0
sS'VOG5509'
p2246
I0
sS'VOG5505'
p2247
I0
sS'VOG5507'
p2248
I0
sS'VOG5506'
p2249
I2
sS'VOG5501'
p2250
I0
sS'VOG5503'
p2251
I0
sS'VOG5276'
p2252
I1
sS'VOG5275'
p2253
I2
sS'VOG5274'
p2254
I1
sS'VOG5273'
p2255
I1
sS'VOG5272'
p2256
I0
sS'VOG5271'
p2257
I1
sS'VOG4902'
p2258
I0
sS'VOG4903'
p2259
I0
sS'VOG4900'
p2260
I0
sS'VOG4901'
p2261
I0
sS'VOG4906'
p2262
I0
sS'VOG4907'
p2263
I0
sS'VOG4905'
p2264
I0
sS'VOG4273'
p2265
I0
sS'VOG4103'
p2266
I0
sS'VOG0029'
p2267
I2
sS'VOG4279'
p2268
I0
sS'VOG4876'
p2269
I0
sS'VOG4877'
p2270
I0
sS'VOG4874'
p2271
I0
sS'VOG4875'
p2272
I1
sS'VOG4870'
p2273
I0
sS'VOG4012'
p2274
I0
sS'VOG4013'
p2275
I0
sS'VOG4014'
p2276
I0
sS'VOG4015'
p2277
I0
sS'VOG4878'
p2278
I0
sS'VOG4017'
p2279
I0
sS'VOG5871'
p2280
I0
sS'VOG5870'
p2281
I0
sS'VOG5873'
p2282
I1
sS'VOG5875'
p2283
I0
sS'VOG5874'
p2284
I1
sS'VOG5877'
p2285
I0
sS'VOG5876'
p2286
I0
sS'VOG3614'
p2287
I0
sS'VOG5475'
p2288
I1
sS'VOG5474'
p2289
I1
sS'VOG5476'
p2290
I0
sS'VOG5471'
p2291
I1
sS'VOG5470'
p2292
I1
sS'VOG5473'
p2293
I0
sS'VOG5144'
p2294
I0
sS'VOG1984b'
p2295
I0
sS'VOG1984a'
p2296
I0
sS'VOG5479'
p2297
I2
sS'VOG5478'
p2298
I1
sS'VOG3129'
p2299
I0
sS'VOG4706'
p2300
I0
sS'VOG4707'
p2301
I1
sS'VOG4700'
p2302
I0
sS'VOG4701'
p2303
I1
sS'VOG4702'
p2304
I0
sS'VOG4703'
p2305
I0
sS'VOG1685'
p2306
I0
sS'VOG3125'
p2307
I0
sS'VOG4709'
p2308
I0
sS'VOG2063'
p2309
I0
sS'VOG2419'
p2310
I0
sS'VOG4691'
p2311
I0
sS'VOG3459'
p2312
I1
sS'VOG3058'
p2313
I0
sS'VOG3729'
p2314
I2
sS'VOG3055'
p2315
I0
sS'VOG3057'
p2316
I0
sS'VOG3056'
p2317
I0
sS'VOG3051'
p2318
I1
sS'VOG3050'
p2319
I1
sS'VOG2238'
p2320
I0
sS'VOG2899'
p2321
I1
sS'VOG2233'
p2322
I4
sS'VOG2894'
p2323
I1
sS'VOG2895'
p2324
I1
sS'VOG2892'
p2325
I1
sS'VOG2893'
p2326
I1
sS'VOG2890'
p2327
I1
sS'VOG2891'
p2328
I1
sS'VOG2526'
p2329
I1
sS'VOG2527'
p2330
I1
sS'VOG2522'
p2331
I1
sS'VOG2523'
p2332
I1
sS'VOG1968'
p2333
I0
sS'VOG1615'
p2334
I1
sS'VOG1614'
p2335
I1
sS'VOG1964'
p2336
I0
sS'VOG1611'
p2337
I1
sS'VOG1610'
p2338
I1
sS'VOG1613'
p2339
I1
sS'VOG2529'
p2340
I1
sS'VOG5246'
p2341
I0
sS'VOG5716'
p2342
I1
sS'VOG5243'
p2343
I0
sS'VOG2412'
p2344
I0
sS'VOG2413'
p2345
I0
sS'VOG2147'
p2346
I1
sS'VOG2417'
p2347
I0
sS'VOG2414'
p2348
I0
sS'VOG2415'
p2349
I0
sS'VOG2418'
p2350
I0
sS'VOG5241'
p2351
I0
sS'VOG3949'
p2352
I1
sS'VOG3943'
p2353
I1
sS'VOG3942'
p2354
I1
sS'VOG3941'
p2355
I1
sS'VOG3940'
p2356
I1
sS'VOG3947'
p2357
I1
sS'VOG3946'
p2358
I1
sS'VOG3944'
p2359
I1
sS'VOG2097'
p2360
I2
sS'VOG2094'
p2361
I2
sS'VOG2095'
p2362
I2
sS'VOG2098'
p2363
I2
scnumpy.core.multiarray
_reconstruct
p2364
(cnumpy
ndarray
p2365
(I0
tp2366
S'b'
p2367
tp2368
Rp2369
(I1
(I9
tp2370
cnumpy
dtype
p2371
(S'S14'
p2372
I0
I1
tp2373
Rp2374
(I3
S'|'
p2375
NNNI14
I1
I0
tp2376
bI00
S'Myoviridae\x00\x00\x00\x00Siphoviridae\x00\x00Podoviridae\x00\x00\x00BicaudaviridaeMicroviridae\x00\x00Inoviridae\x00\x00\x00\x00FuselloviridaeTectiviridae\x00\x00Leviviridae\x00\x00\x00'
p2377
tp2378
btp2379
.