ccopy_reg
_reconstructor
p0
(cpandas.core.frame
DataFrame
p1
c__builtin__
object
p2
Ntp3
Rp4
(dp5
S'_metadata'
p6
(lp7
sS'_typ'
p8
S'dataframe'
p9
sS'_data'
p10
g0
(cpandas.core.internals
BlockManager
p11
g2
Ntp12
Rp13
((lp14
cpandas.core.indexes.base
_new_Index
p15
(cpandas.core.indexes.base
Index
p16
(dp17
S'data'
p18
cnumpy.core.multiarray
_reconstruct
p19
(cnumpy
ndarray
p20
(I0
tp21
S'b'
p22
tp23
Rp24
(I1
(I2
tp25
cnumpy
dtype
p26
(S'O8'
p27
I0
I1
tp28
Rp29
(I3
S'|'
p30
NNNI-1
I-1
I63
tp31
bI00
(lp32
S'function'
p33
aS'group'
p34
atp35
bsS'name'
p36
Nstp37
Rp38
ag15
(g16
(dp39
g18
g19
(g20
(I0
tp40
g22
tp41
Rp42
(I1
(I1474
tp43
g29
I00
(lp44
S'VOG0001'
p45
aS'VOG0002'
p46
aS'VOG0005'
p47
aS'VOG0006'
p48
aS'VOG0007'
p49
aS'VOG0009'
p50
aS'VOG0013'
p51
aS'VOG0015'
p52
aS'VOG0016'
p53
aS'VOG0018'
p54
aS'VOG0019'
p55
aS'VOG0025'
p56
aS'VOG0026'
p57
aS'VOG0028'
p58
aS'VOG0030'
p59
aS'VOG0031'
p60
aS'VOG0034'
p61
aS'VOG0035'
p62
aS'VOG0037'
p63
aS'VOG0038'
p64
aS'VOG0040'
p65
aS'VOG0046'
p66
aS'VOG0049'
p67
aS'VOG0050'
p68
aS'VOG0051'
p69
aS'VOG0052'
p70
aS'VOG0054'
p71
aS'VOG0058'
p72
aS'VOG0061'
p73
aS'VOG0067'
p74
aS'VOG0083'
p75
aS'VOG0085'
p76
aS'VOG0088'
p77
aS'VOG0092'
p78
aS'VOG0106'
p79
aS'VOG0136'
p80
aS'VOG0156'
p81
aS'VOG0166'
p82
aS'VOG0167'
p83
aS'VOG0168'
p84
aS'VOG0169'
p85
aS'VOG0170'
p86
aS'VOG0171'
p87
aS'VOG0172'
p88
aS'VOG0173'
p89
aS'VOG0174'
p90
aS'VOG0175'
p91
aS'VOG0176'
p92
aS'VOG0177'
p93
aS'VOG0178'
p94
aS'VOG0183'
p95
aS'VOG0189'
p96
aS'VOG0202'
p97
aS'VOG0205'
p98
aS'VOG0209'
p99
aS'VOG0221'
p100
aS'VOG0227'
p101
aS'VOG0234'
p102
aS'VOG0236'
p103
aS'VOG0237'
p104
aS'VOG0249'
p105
aS'VOG0253'
p106
aS'VOG0254'
p107
aS'VOG0258'
p108
aS'VOG0259'
p109
aS'VOG0261'
p110
aS'VOG0263'
p111
aS'VOG0265'
p112
aS'VOG0273'
p113
aS'VOG0274'
p114
aS'VOG0275'
p115
aS'VOG0281'
p116
aS'VOG0284'
p117
aS'VOG0285'
p118
aS'VOG0286'
p119
aS'VOG0287'
p120
aS'VOG0288'
p121
aS'VOG0292'
p122
aS'VOG0293'
p123
aS'VOG0295'
p124
aS'VOG0296'
p125
aS'VOG0298'
p126
aS'VOG0299'
p127
aS'VOG0300'
p128
aS'VOG0312'
p129
aS'VOG0320'
p130
aS'VOG0334'
p131
aS'VOG0337'
p132
aS'VOG0350'
p133
aS'VOG0351'
p134
aS'VOG0355'
p135
aS'VOG0356'
p136
aS'VOG0372'
p137
aS'VOG0377'
p138
aS'VOG0382'
p139
aS'VOG0384'
p140
aS'VOG0393'
p141
aS'VOG0397'
p142
aS'VOG0400'
p143
aS'VOG0402'
p144
aS'VOG0408'
p145
aS'VOG0409'
p146
aS'VOG0410'
p147
aS'VOG0412'
p148
aS'VOG0419'
p149
aS'VOG0420'
p150
aS'VOG0421'
p151
aS'VOG0436'
p152
aS'VOG0443'
p153
aS'VOG0451'
p154
aS'VOG0452'
p155
aS'VOG0454'
p156
aS'VOG0456'
p157
aS'VOG0457'
p158
aS'VOG0459'
p159
aS'VOG0460'
p160
aS'VOG0461'
p161
aS'VOG0462'
p162
aS'VOG0463'
p163
aS'VOG0464'
p164
aS'VOG0465'
p165
aS'VOG0466'
p166
aS'VOG0471'
p167
aS'VOG0473'
p168
aS'VOG0474'
p169
aS'VOG0475'
p170
aS'VOG0476'
p171
aS'VOG0477'
p172
aS'VOG0480'
p173
aS'VOG0485'
p174
aS'VOG0493'
p175
aS'VOG0496'
p176
aS'VOG0499'
p177
aS'VOG0505'
p178
aS'VOG0509'
p179
aS'VOG0510'
p180
aS'VOG0529'
p181
aS'VOG0544'
p182
aS'VOG0545'
p183
aS'VOG0559'
p184
aS'VOG0566'
p185
aS'VOG0567'
p186
aS'VOG0568'
p187
aS'VOG0569'
p188
aS'VOG0571'
p189
aS'VOG0574'
p190
aS'VOG0577'
p191
aS'VOG0582'
p192
aS'VOG0588'
p193
aS'VOG0602'
p194
aS'VOG0603'
p195
aS'VOG0609'
p196
aS'VOG0612'
p197
aS'VOG0614'
p198
aS'VOG0615'
p199
aS'VOG0639'
p200
aS'VOG0641'
p201
aS'VOG0642'
p202
aS'VOG0643'
p203
aS'VOG0644'
p204
aS'VOG0645'
p205
aS'VOG0647'
p206
aS'VOG0668'
p207
aS'VOG0676'
p208
aS'VOG0681'
p209
aS'VOG0691'
p210
aS'VOG0692'
p211
aS'VOG0694'
p212
aS'VOG0697'
p213
aS'VOG0698'
p214
aS'VOG0703'
p215
aS'VOG0705'
p216
aS'VOG0707'
p217
aS'VOG0720'
p218
aS'VOG0731'
p219
aS'VOG0739'
p220
aS'VOG0756'
p221
aS'VOG0764'
p222
aS'VOG0765'
p223
aS'VOG0785'
p224
aS'VOG0796'
p225
aS'VOG0799'
p226
aS'VOG0816'
p227
aS'VOG0823'
p228
aS'VOG0827'
p229
aS'VOG0828'
p230
aS'VOG0830'
p231
aS'VOG0831'
p232
aS'VOG0832'
p233
aS'VOG0833'
p234
aS'VOG0835'
p235
aS'VOG0837'
p236
aS'VOG0838'
p237
aS'VOG0839'
p238
aS'VOG0840'
p239
aS'VOG0842'
p240
aS'VOG0843'
p241
aS'VOG0847'
p242
aS'VOG0848'
p243
aS'VOG0850'
p244
aS'VOG0855'
p245
aS'VOG0875'
p246
aS'VOG0876'
p247
aS'VOG0877'
p248
aS'VOG0878'
p249
aS'VOG0879'
p250
aS'VOG0880'
p251
aS'VOG0885'
p252
aS'VOG0886'
p253
aS'VOG0887'
p254
aS'VOG0889'
p255
aS'VOG0890'
p256
aS'VOG0897'
p257
aS'VOG0906'
p258
aS'VOG0913'
p259
aS'VOG0924'
p260
aS'VOG0930'
p261
aS'VOG0933'
p262
aS'VOG0944'
p263
aS'VOG0945'
p264
aS'VOG0946'
p265
aS'VOG0947'
p266
aS'VOG0975'
p267
aS'VOG0976'
p268
aS'VOG0979'
p269
aS'VOG0985'
p270
aS'VOG0986'
p271
aS'VOG0991'
p272
aS'VOG0992'
p273
aS'VOG0996'
p274
aS'VOG0997'
p275
aS'VOG0998'
p276
aS'VOG1001'
p277
aS'VOG1005'
p278
aS'VOG1006'
p279
aS'VOG1020'
p280
aS'VOG1026'
p281
aS'VOG1030'
p282
aS'VOG1031'
p283
aS'VOG1032'
p284
aS'VOG1036'
p285
aS'VOG1045'
p286
aS'VOG1051'
p287
aS'VOG1072'
p288
aS'VOG1092'
p289
aS'VOG1099'
p290
aS'VOG1105'
p291
aS'VOG1112'
p292
aS'VOG1113'
p293
aS'VOG1146'
p294
aS'VOG1165'
p295
aS'VOG1166'
p296
aS'VOG1167'
p297
aS'VOG1179'
p298
aS'VOG1184'
p299
aS'VOG1190'
p300
aS'VOG1191'
p301
aS'VOG1198'
p302
aS'VOG1200'
p303
aS'VOG1201'
p304
aS'VOG1213'
p305
aS'VOG1215'
p306
aS'VOG1222'
p307
aS'VOG1225'
p308
aS'VOG1270'
p309
aS'VOG1279'
p310
aS'VOG1284'
p311
aS'VOG1297'
p312
aS'VOG1298'
p313
aS'VOG1300'
p314
aS'VOG1309'
p315
aS'VOG1311'
p316
aS'VOG1314'
p317
aS'VOG1319'
p318
aS'VOG1329'
p319
aS'VOG1337'
p320
aS'VOG1344'
p321
aS'VOG1363'
p322
aS'VOG1391'
p323
aS'VOG1403'
p324
aS'VOG1404'
p325
aS'VOG1405'
p326
aS'VOG1436'
p327
aS'VOG1517'
p328
aS'VOG1519'
p329
aS'VOG1587'
p330
aS'VOG1590'
p331
aS'VOG1609'
p332
aS'VOG1617'
p333
aS'VOG1618'
p334
aS'VOG1619'
p335
aS'VOG1647'
p336
aS'VOG1654'
p337
aS'VOG1681'
p338
aS'VOG1801'
p339
aS'VOG1829'
p340
aS'VOG1850'
p341
aS'VOG1860'
p342
aS'VOG1861'
p343
aS'VOG1864'
p344
aS'VOG1871'
p345
aS'VOG1874'
p346
aS'VOG1883'
p347
aS'VOG1886'
p348
aS'VOG1887'
p349
aS'VOG1894'
p350
aS'VOG1898'
p351
aS'VOG1912'
p352
aS'VOG1936'
p353
aS'VOG1981'
p354
aS'VOG1992'
p355
aS'VOG2005'
p356
aS'VOG2006'
p357
aS'VOG2012'
p358
aS'VOG2015'
p359
aS'VOG2017'
p360
aS'VOG2044'
p361
aS'VOG2054'
p362
aS'VOG2075'
p363
aS'VOG2080'
p364
aS'VOG2090'
p365
aS'VOG2098'
p366
aS'VOG2120'
p367
aS'VOG2123'
p368
aS'VOG2124'
p369
aS'VOG2137'
p370
aS'VOG2142'
p371
aS'VOG2200'
p372
aS'VOG2210'
p373
aS'VOG2211'
p374
aS'VOG2215'
p375
aS'VOG2217'
p376
aS'VOG2218'
p377
aS'VOG2232'
p378
aS'VOG2233'
p379
aS'VOG2234'
p380
aS'VOG2235'
p381
aS'VOG2310'
p382
aS'VOG2312'
p383
aS'VOG2313'
p384
aS'VOG2315'
p385
aS'VOG2332'
p386
aS'VOG2352'
p387
aS'VOG2368'
p388
aS'VOG2379'
p389
aS'VOG2384'
p390
aS'VOG2386'
p391
aS'VOG2397'
p392
aS'VOG2403'
p393
aS'VOG2422'
p394
aS'VOG2444'
p395
aS'VOG2450'
p396
aS'VOG2457'
p397
aS'VOG2497'
p398
aS'VOG2513'
p399
aS'VOG2518'
p400
aS'VOG2526'
p401
aS'VOG2557'
p402
aS'VOG2559'
p403
aS'VOG2560'
p404
aS'VOG2567'
p405
aS'VOG2570'
p406
aS'VOG2571'
p407
aS'VOG2575'
p408
aS'VOG2612'
p409
aS'VOG2613'
p410
aS'VOG2617'
p411
aS'VOG2621'
p412
aS'VOG2622'
p413
aS'VOG2624'
p414
aS'VOG2626'
p415
aS'VOG2627'
p416
aS'VOG2634'
p417
aS'VOG2636'
p418
aS'VOG2637'
p419
aS'VOG2644'
p420
aS'VOG2648'
p421
aS'VOG2649'
p422
aS'VOG2654'
p423
aS'VOG2666'
p424
aS'VOG2766'
p425
aS'VOG2773'
p426
aS'VOG2774'
p427
aS'VOG2786'
p428
aS'VOG2788'
p429
aS'VOG2791'
p430
aS'VOG2792'
p431
aS'VOG2793'
p432
aS'VOG2806'
p433
aS'VOG2819'
p434
aS'VOG2820'
p435
aS'VOG2821'
p436
aS'VOG2822'
p437
aS'VOG2842'
p438
aS'VOG2848'
p439
aS'VOG2875'
p440
aS'VOG2876'
p441
aS'VOG2894'
p442
aS'VOG2895'
p443
aS'VOG2914'
p444
aS'VOG2920'
p445
aS'VOG2922'
p446
aS'VOG2923'
p447
aS'VOG2924'
p448
aS'VOG2925'
p449
aS'VOG2932'
p450
aS'VOG2933'
p451
aS'VOG2936'
p452
aS'VOG2937'
p453
aS'VOG2947'
p454
aS'VOG2950'
p455
aS'VOG2957'
p456
aS'VOG2958'
p457
aS'VOG2973'
p458
aS'VOG2993'
p459
aS'VOG2995'
p460
aS'VOG3011'
p461
aS'VOG3015'
p462
aS'VOG3020'
p463
aS'VOG3022'
p464
aS'VOG3028'
p465
aS'VOG3029'
p466
aS'VOG3030'
p467
aS'VOG3050'
p468
aS'VOG3093'
p469
aS'VOG3178'
p470
aS'VOG3180'
p471
aS'VOG3181'
p472
aS'VOG3188'
p473
aS'VOG3199'
p474
aS'VOG3201'
p475
aS'VOG3202'
p476
aS'VOG3211'
p477
aS'VOG3215'
p478
aS'VOG3221'
p479
aS'VOG3222'
p480
aS'VOG3227'
p481
aS'VOG3233'
p482
aS'VOG3235'
p483
aS'VOG3238'
p484
aS'VOG3239'
p485
aS'VOG3241'
p486
aS'VOG3244'
p487
aS'VOG3255'
p488
aS'VOG3256'
p489
aS'VOG3262'
p490
aS'VOG3263'
p491
aS'VOG3271'
p492
aS'VOG3275'
p493
aS'VOG3278'
p494
aS'VOG3279'
p495
aS'VOG3280'
p496
aS'VOG3287'
p497
aS'VOG3288'
p498
aS'VOG3294'
p499
aS'VOG3309'
p500
aS'VOG3341'
p501
aS'VOG3344'
p502
aS'VOG3346'
p503
aS'VOG3347'
p504
aS'VOG3356'
p505
aS'VOG3357'
p506
aS'VOG3358'
p507
aS'VOG3369'
p508
aS'VOG3376'
p509
aS'VOG3379'
p510
aS'VOG3381'
p511
aS'VOG3382'
p512
aS'VOG3396'
p513
aS'VOG3397'
p514
aS'VOG3399'
p515
aS'VOG3401'
p516
aS'VOG3404'
p517
aS'VOG3416'
p518
aS'VOG3418'
p519
aS'VOG3419'
p520
aS'VOG3420'
p521
aS'VOG3421'
p522
aS'VOG3427'
p523
aS'VOG3443'
p524
aS'VOG3445'
p525
aS'VOG3447'
p526
aS'VOG3475'
p527
aS'VOG3478'
p528
aS'VOG3505'
p529
aS'VOG3506'
p530
aS'VOG3518'
p531
aS'VOG3519'
p532
aS'VOG3520'
p533
aS'VOG3525'
p534
aS'VOG3526'
p535
aS'VOG3530'
p536
aS'VOG3546'
p537
aS'VOG3550'
p538
aS'VOG3552'
p539
aS'VOG3562'
p540
aS'VOG3563'
p541
aS'VOG3564'
p542
aS'VOG3567'
p543
aS'VOG3570'
p544
aS'VOG3571'
p545
aS'VOG3574'
p546
aS'VOG3576'
p547
aS'VOG3577'
p548
aS'VOG3578'
p549
aS'VOG3583'
p550
aS'VOG3585'
p551
aS'VOG3586'
p552
aS'VOG3588'
p553
aS'VOG3590'
p554
aS'VOG3591'
p555
aS'VOG3593'
p556
aS'VOG3607'
p557
aS'VOG3624'
p558
aS'VOG3653'
p559
aS'VOG3654'
p560
aS'VOG3660'
p561
aS'VOG3667'
p562
aS'VOG3669'
p563
aS'VOG3675'
p564
aS'VOG3676'
p565
aS'VOG3704'
p566
aS'VOG3708'
p567
aS'VOG3721'
p568
aS'VOG3722'
p569
aS'VOG3724'
p570
aS'VOG3739'
p571
aS'VOG3740'
p572
aS'VOG3744'
p573
aS'VOG3760'
p574
aS'VOG3777'
p575
aS'VOG3793'
p576
aS'VOG3824'
p577
aS'VOG3843'
p578
aS'VOG3887'
p579
aS'VOG3890'
p580
aS'VOG3897'
p581
aS'VOG3900'
p582
aS'VOG3921'
p583
aS'VOG3967'
p584
aS'VOG3969'
p585
aS'VOG3972'
p586
aS'VOG3978'
p587
aS'VOG3979'
p588
aS'VOG3981'
p589
aS'VOG3984'
p590
aS'VOG3995'
p591
aS'VOG4006'
p592
aS'VOG4017'
p593
aS'VOG4023'
p594
aS'VOG4026'
p595
aS'VOG4027'
p596
aS'VOG4037'
p597
aS'VOG4040'
p598
aS'VOG4044'
p599
aS'VOG4059'
p600
aS'VOG4062'
p601
aS'VOG4070'
p602
aS'VOG4079'
p603
aS'VOG4080'
p604
aS'VOG4085'
p605
aS'VOG4088'
p606
aS'VOG4097'
p607
aS'VOG4099'
p608
aS'VOG4111'
p609
aS'VOG4120'
p610
aS'VOG4123'
p611
aS'VOG4124'
p612
aS'VOG4125'
p613
aS'VOG4126'
p614
aS'VOG4128'
p615
aS'VOG4133'
p616
aS'VOG4138'
p617
aS'VOG4142'
p618
aS'VOG4143'
p619
aS'VOG4149'
p620
aS'VOG4152'
p621
aS'VOG4154'
p622
aS'VOG4155'
p623
aS'VOG4156'
p624
aS'VOG4157'
p625
aS'VOG4161'
p626
aS'VOG4165'
p627
aS'VOG4166'
p628
aS'VOG4191'
p629
aS'VOG4192'
p630
aS'VOG4195'
p631
aS'VOG4204'
p632
aS'VOG4210'
p633
aS'VOG4319'
p634
aS'VOG4341'
p635
aS'VOG4344'
p636
aS'VOG4357'
p637
aS'VOG4359'
p638
aS'VOG4409'
p639
aS'VOG4410'
p640
aS'VOG4418'
p641
aS'VOG4447'
p642
aS'VOG4495'
p643
aS'VOG4524'
p644
aS'VOG4536'
p645
aS'VOG4542'
p646
aS'VOG4544'
p647
aS'VOG4545'
p648
aS'VOG4547'
p649
aS'VOG4548'
p650
aS'VOG4549'
p651
aS'VOG4551'
p652
aS'VOG4553'
p653
aS'VOG4555'
p654
aS'VOG4556'
p655
aS'VOG4557'
p656
aS'VOG4558'
p657
aS'VOG4560'
p658
aS'VOG4561'
p659
aS'VOG4562'
p660
aS'VOG4565'
p661
aS'VOG4567'
p662
aS'VOG4569'
p663
aS'VOG4571'
p664
aS'VOG4572'
p665
aS'VOG4574'
p666
aS'VOG4575'
p667
aS'VOG4577'
p668
aS'VOG4582'
p669
aS'VOG4583'
p670
aS'VOG4584'
p671
aS'VOG4586'
p672
aS'VOG4588'
p673
aS'VOG4591'
p674
aS'VOG4592'
p675
aS'VOG4594'
p676
aS'VOG4595'
p677
aS'VOG4598'
p678
aS'VOG4599'
p679
aS'VOG4600'
p680
aS'VOG4601'
p681
aS'VOG4603'
p682
aS'VOG4604'
p683
aS'VOG4606'
p684
aS'VOG4608'
p685
aS'VOG4610'
p686
aS'VOG4613'
p687
aS'VOG4618'
p688
aS'VOG4625'
p689
aS'VOG4627'
p690
aS'VOG4630'
p691
aS'VOG4634'
p692
aS'VOG4637'
p693
aS'VOG4640'
p694
aS'VOG4641'
p695
aS'VOG4644'
p696
aS'VOG4645'
p697
aS'VOG4646'
p698
aS'VOG4648'
p699
aS'VOG4649'
p700
aS'VOG4650'
p701
aS'VOG4652'
p702
aS'VOG4653'
p703
aS'VOG4658'
p704
aS'VOG4659'
p705
aS'VOG4660'
p706
aS'VOG4661'
p707
aS'VOG4663'
p708
aS'VOG4666'
p709
aS'VOG4668'
p710
aS'VOG4669'
p711
aS'VOG4672'
p712
aS'VOG4673'
p713
aS'VOG4676'
p714
aS'VOG4677'
p715
aS'VOG4678'
p716
aS'VOG4681'
p717
aS'VOG4683'
p718
aS'VOG4686'
p719
aS'VOG4689'
p720
aS'VOG4690'
p721
aS'VOG4692'
p722
aS'VOG4695'
p723
aS'VOG4696'
p724
aS'VOG4697'
p725
aS'VOG4698'
p726
aS'VOG4701'
p727
aS'VOG4702'
p728
aS'VOG4707'
p729
aS'VOG4708'
p730
aS'VOG4711'
p731
aS'VOG4712'
p732
aS'VOG4714'
p733
aS'VOG4715'
p734
aS'VOG4719'
p735
aS'VOG4725'
p736
aS'VOG4730'
p737
aS'VOG4733'
p738
aS'VOG4735'
p739
aS'VOG4736'
p740
aS'VOG4745'
p741
aS'VOG4759'
p742
aS'VOG4760'
p743
aS'VOG4761'
p744
aS'VOG4763'
p745
aS'VOG4771'
p746
aS'VOG4772'
p747
aS'VOG4773'
p748
aS'VOG4774'
p749
aS'VOG4777'
p750
aS'VOG4779'
p751
aS'VOG4781'
p752
aS'VOG4790'
p753
aS'VOG4795'
p754
aS'VOG4802'
p755
aS'VOG4806'
p756
aS'VOG4809'
p757
aS'VOG4810'
p758
aS'VOG4811'
p759
aS'VOG4814'
p760
aS'VOG4815'
p761
aS'VOG4820'
p762
aS'VOG4823'
p763
aS'VOG4825'
p764
aS'VOG4827'
p765
aS'VOG4832'
p766
aS'VOG4835'
p767
aS'VOG4837'
p768
aS'VOG4838'
p769
aS'VOG4840'
p770
aS'VOG4844'
p771
aS'VOG4850'
p772
aS'VOG4854'
p773
aS'VOG4855'
p774
aS'VOG4860'
p775
aS'VOG4865'
p776
aS'VOG4868'
p777
aS'VOG4882'
p778
aS'VOG4884'
p779
aS'VOG4885'
p780
aS'VOG4909'
p781
aS'VOG4910'
p782
aS'VOG4934'
p783
aS'VOG4942'
p784
aS'VOG4952'
p785
aS'VOG4955'
p786
aS'VOG4968'
p787
aS'VOG4971'
p788
aS'VOG4979'
p789
aS'VOG4985'
p790
aS'VOG4995'
p791
aS'VOG4999'
p792
aS'VOG5008'
p793
aS'VOG5012'
p794
aS'VOG5022'
p795
aS'VOG5024'
p796
aS'VOG5027'
p797
aS'VOG5031'
p798
aS'VOG5032'
p799
aS'VOG5035'
p800
aS'VOG5036'
p801
aS'VOG5046'
p802
aS'VOG5052'
p803
aS'VOG5053'
p804
aS'VOG5055'
p805
aS'VOG5062'
p806
aS'VOG5063'
p807
aS'VOG5083'
p808
aS'VOG5084'
p809
aS'VOG5085'
p810
aS'VOG5086'
p811
aS'VOG5088'
p812
aS'VOG5089'
p813
aS'VOG5091'
p814
aS'VOG5095'
p815
aS'VOG5096'
p816
aS'VOG5098'
p817
aS'VOG5100'
p818
aS'VOG5101'
p819
aS'VOG5106'
p820
aS'VOG5116'
p821
aS'VOG5118'
p822
aS'VOG5121'
p823
aS'VOG5125'
p824
aS'VOG5126'
p825
aS'VOG5127'
p826
aS'VOG5148'
p827
aS'VOG5156'
p828
aS'VOG5162'
p829
aS'VOG5170'
p830
aS'VOG5173'
p831
aS'VOG5188'
p832
aS'VOG5196'
p833
aS'VOG5203'
p834
aS'VOG5211'
p835
aS'VOG5213'
p836
aS'VOG5214'
p837
aS'VOG5227'
p838
aS'VOG5231'
p839
aS'VOG5235'
p840
aS'VOG5239'
p841
aS'VOG5249'
p842
aS'VOG5255'
p843
aS'VOG5260'
p844
aS'VOG5268'
p845
aS'VOG5280'
p846
aS'VOG5302'
p847
aS'VOG5305'
p848
aS'VOG5329'
p849
aS'VOG5332'
p850
aS'VOG5345'
p851
aS'VOG5372'
p852
aS'VOG5392'
p853
aS'VOG5435'
p854
aS'VOG5441'
p855
aS'VOG5443'
p856
aS'VOG5447'
p857
aS'VOG5448'
p858
aS'VOG5456'
p859
aS'VOG5477'
p860
aS'VOG5478'
p861
aS'VOG5481'
p862
aS'VOG5511'
p863
aS'VOG5520'
p864
aS'VOG5551'
p865
aS'VOG5556'
p866
aS'VOG5566'
p867
aS'VOG5573'
p868
aS'VOG5575'
p869
aS'VOG5577'
p870
aS'VOG5581'
p871
aS'VOG5584'
p872
aS'VOG5585'
p873
aS'VOG5587'
p874
aS'VOG5589'
p875
aS'VOG5590'
p876
aS'VOG5593'
p877
aS'VOG5595'
p878
aS'VOG5604'
p879
aS'VOG5617'
p880
aS'VOG5656'
p881
aS'VOG5657'
p882
aS'VOG5661'
p883
aS'VOG5680'
p884
aS'VOG5687'
p885
aS'VOG5698'
p886
aS'VOG5700'
p887
aS'VOG5707'
p888
aS'VOG5742'
p889
aS'VOG5751'
p890
aS'VOG5769'
p891
aS'VOG5775'
p892
aS'VOG5781'
p893
aS'VOG5782'
p894
aS'VOG5786'
p895
aS'VOG5793'
p896
aS'VOG5794'
p897
aS'VOG5817'
p898
aS'VOG5818'
p899
aS'VOG5840'
p900
aS'VOG5846'
p901
aS'VOG5861'
p902
aS'VOG5862'
p903
aS'VOG5871'
p904
aS'VOG5902'
p905
aS'VOG5904'
p906
aS'VOG5918'
p907
aS'VOG5938'
p908
aS'VOG5942'
p909
aS'VOG5946'
p910
aS'VOG5950'
p911
aS'VOG5953'
p912
aS'VOG5979'
p913
aS'VOG5982'
p914
aS'VOG5986'
p915
aS'VOG6001'
p916
aS'VOG6034'
p917
aS'VOG6042'
p918
aS'VOG6058'
p919
aS'VOG6076'
p920
aS'VOG6085'
p921
aS'VOG6131'
p922
aS'VOG6133'
p923
aS'VOG6152'
p924
aS'VOG6163'
p925
aS'VOG6166'
p926
aS'VOG6167'
p927
aS'VOG6170'
p928
aS'VOG6193'
p929
aS'VOG6196'
p930
aS'VOG6200'
p931
aS'VOG6207'
p932
aS'VOG6230'
p933
aS'VOG6232'
p934
aS'VOG6236'
p935
aS'VOG6246'
p936
aS'VOG6247'
p937
aS'VOG6275'
p938
aS'VOG6282'
p939
aS'VOG6288'
p940
aS'VOG6302'
p941
aS'VOG6313'
p942
aS'VOG6314'
p943
aS'VOG6331'
p944
aS'VOG6343'
p945
aS'VOG6345'
p946
aS'VOG6350'
p947
aS'VOG6371'
p948
aS'VOG6373'
p949
aS'VOG6389'
p950
aS'VOG6391'
p951
aS'VOG6396'
p952
aS'VOG6422'
p953
aS'VOG6427'
p954
aS'VOG6449'
p955
aS'VOG6452'
p956
aS'VOG6457'
p957
aS'VOG6465'
p958
aS'VOG6479'
p959
aS'VOG6488'
p960
aS'VOG6513'
p961
aS'VOG6520'
p962
aS'VOG6535'
p963
aS'VOG6537'
p964
aS'VOG6540'
p965
aS'VOG6551'
p966
aS'VOG6560'
p967
aS'VOG6565'
p968
aS'VOG6566'
p969
aS'VOG6568'
p970
aS'VOG6599'
p971
aS'VOG6602'
p972
aS'VOG6628'
p973
aS'VOG6632'
p974
aS'VOG6633'
p975
aS'VOG6648'
p976
aS'VOG6667'
p977
aS'VOG6669'
p978
aS'VOG6672'
p979
aS'VOG6676'
p980
aS'VOG6751'
p981
aS'VOG6796'
p982
aS'VOG6813'
p983
aS'VOG6815'
p984
aS'VOG6821'
p985
aS'VOG6822'
p986
aS'VOG6823'
p987
aS'VOG6857'
p988
aS'VOG6879'
p989
aS'VOG6888'
p990
aS'VOG6912'
p991
aS'VOG6924'
p992
aS'VOG6942'
p993
aS'VOG6945'
p994
aS'VOG6965'
p995
aS'VOG6967'
p996
aS'VOG6975'
p997
aS'VOG6988'
p998
aS'VOG7037'
p999
aS'VOG7054'
p1000
aS'VOG7066'
p1001
aS'VOG7067'
p1002
aS'VOG7069'
p1003
aS'VOG7071'
p1004
aS'VOG7073'
p1005
aS'VOG7074'
p1006
aS'VOG7075'
p1007
aS'VOG7089'
p1008
aS'VOG7099'
p1009
aS'VOG7104'
p1010
aS'VOG7110'
p1011
aS'VOG7125'
p1012
aS'VOG7137'
p1013
aS'VOG7152'
p1014
aS'VOG7154'
p1015
aS'VOG7167'
p1016
aS'VOG7168'
p1017
aS'VOG7172'
p1018
aS'VOG7188'
p1019
aS'VOG7232'
p1020
aS'VOG7238'
p1021
aS'VOG7243'
p1022
aS'VOG7260'
p1023
aS'VOG7264'
p1024
aS'VOG7266'
p1025
aS'VOG7274'
p1026
aS'VOG7277'
p1027
aS'VOG7279'
p1028
aS'VOG7284'
p1029
aS'VOG7285'
p1030
aS'VOG7286'
p1031
aS'VOG7287'
p1032
aS'VOG7288'
p1033
aS'VOG7298'
p1034
aS'VOG7302'
p1035
aS'VOG7312'
p1036
aS'VOG7318'
p1037
aS'VOG7320'
p1038
aS'VOG7321'
p1039
aS'VOG7325'
p1040
aS'VOG7329'
p1041
aS'VOG7340'
p1042
aS'VOG7364'
p1043
aS'VOG7391'
p1044
aS'VOG7403'
p1045
aS'VOG7405'
p1046
aS'VOG7407'
p1047
aS'VOG7415'
p1048
aS'VOG7416'
p1049
aS'VOG7417'
p1050
aS'VOG7419'
p1051
aS'VOG7421'
p1052
aS'VOG7424'
p1053
aS'VOG7428'
p1054
aS'VOG7430'
p1055
aS'VOG7434'
p1056
aS'VOG7435'
p1057
aS'VOG7437'
p1058
aS'VOG7440'
p1059
aS'VOG7442'
p1060
aS'VOG7443'
p1061
aS'VOG7444'
p1062
aS'VOG7451'
p1063
aS'VOG7454'
p1064
aS'VOG7456'
p1065
aS'VOG7495'
p1066
aS'VOG7497'
p1067
aS'VOG7503'
p1068
aS'VOG7511'
p1069
aS'VOG7515'
p1070
aS'VOG7516'
p1071
aS'VOG7554'
p1072
aS'VOG7563'
p1073
aS'VOG7569'
p1074
aS'VOG7575'
p1075
aS'VOG7581'
p1076
aS'VOG7606'
p1077
aS'VOG7623'
p1078
aS'VOG7629'
p1079
aS'VOG7633'
p1080
aS'VOG7641'
p1081
aS'VOG7642'
p1082
aS'VOG7652'
p1083
aS'VOG7687'
p1084
aS'VOG7689'
p1085
aS'VOG7695'
p1086
aS'VOG7701'
p1087
aS'VOG7718'
p1088
aS'VOG7767'
p1089
aS'VOG7789'
p1090
aS'VOG7808'
p1091
aS'VOG7823'
p1092
aS'VOG7880'
p1093
aS'VOG7884'
p1094
aS'VOG7887'
p1095
aS'VOG7900'
p1096
aS'VOG7907'
p1097
aS'VOG7913'
p1098
aS'VOG7917'
p1099
aS'VOG7941'
p1100
aS'VOG7946'
p1101
aS'VOG7961'
p1102
aS'VOG7962'
p1103
aS'VOG7981'
p1104
aS'VOG8001'
p1105
aS'VOG8004'
p1106
aS'VOG8023'
p1107
aS'VOG8085'
p1108
aS'VOG8134'
p1109
aS'VOG8138'
p1110
aS'VOG8163'
p1111
aS'VOG8165'
p1112
aS'VOG8166'
p1113
aS'VOG8169'
p1114
aS'VOG8171'
p1115
aS'VOG8172'
p1116
aS'VOG8173'
p1117
aS'VOG8187'
p1118
aS'VOG8215'
p1119
aS'VOG8216'
p1120
aS'VOG8218'
p1121
aS'VOG8223'
p1122
aS'VOG8226'
p1123
aS'VOG8237'
p1124
aS'VOG8238'
p1125
aS'VOG8244'
p1126
aS'VOG8257'
p1127
aS'VOG8262'
p1128
aS'VOG8290'
p1129
aS'VOG8295'
p1130
aS'VOG8296'
p1131
aS'VOG8297'
p1132
aS'VOG8298'
p1133
aS'VOG8299'
p1134
aS'VOG8303'
p1135
aS'VOG8306'
p1136
aS'VOG8313'
p1137
aS'VOG8314'
p1138
aS'VOG8315'
p1139
aS'VOG8316'
p1140
aS'VOG8317'
p1141
aS'VOG8332'
p1142
aS'VOG8343'
p1143
aS'VOG8384'
p1144
aS'VOG8387'
p1145
aS'VOG8389'
p1146
aS'VOG8414'
p1147
aS'VOG8438'
p1148
aS'VOG8473'
p1149
aS'VOG8487'
p1150
aS'VOG8492'
p1151
aS'VOG8495'
p1152
aS'VOG8498'
p1153
aS'VOG8502'
p1154
aS'VOG8506'
p1155
aS'VOG8516'
p1156
aS'VOG8519'
p1157
aS'VOG8520'
p1158
aS'VOG8534'
p1159
aS'VOG8536'
p1160
aS'VOG8549'
p1161
aS'VOG8550'
p1162
aS'VOG8551'
p1163
aS'VOG8552'
p1164
aS'VOG8553'
p1165
aS'VOG8556'
p1166
aS'VOG8557'
p1167
aS'VOG8578'
p1168
aS'VOG8579'
p1169
aS'VOG8586'
p1170
aS'VOG8599'
p1171
aS'VOG8607'
p1172
aS'VOG8609'
p1173
aS'VOG8616'
p1174
aS'VOG8617'
p1175
aS'VOG8625'
p1176
aS'VOG8643'
p1177
aS'VOG8650'
p1178
aS'VOG8651'
p1179
aS'VOG8653'
p1180
aS'VOG8678'
p1181
aS'VOG8684'
p1182
aS'VOG8687'
p1183
aS'VOG8725'
p1184
aS'VOG8726'
p1185
aS'VOG8742'
p1186
aS'VOG8751'
p1187
aS'VOG8752'
p1188
aS'VOG8754'
p1189
aS'VOG8779'
p1190
aS'VOG8783'
p1191
aS'VOG8820'
p1192
aS'VOG8849'
p1193
aS'VOG8850'
p1194
aS'VOG8855'
p1195
aS'VOG8863'
p1196
aS'VOG8866'
p1197
aS'VOG8868'
p1198
aS'VOG8870'
p1199
aS'VOG8877'
p1200
aS'VOG8882'
p1201
aS'VOG8888'
p1202
aS'VOG8899'
p1203
aS'VOG8905'
p1204
aS'VOG8909'
p1205
aS'VOG8916'
p1206
aS'VOG8925'
p1207
aS'VOG8926'
p1208
aS'VOG8954'
p1209
aS'VOG8985'
p1210
aS'VOG8986'
p1211
aS'VOG8992'
p1212
aS'VOG9038'
p1213
aS'VOG9064'
p1214
aS'VOG9086'
p1215
aS'VOG9093'
p1216
aS'VOG9099'
p1217
aS'VOG9115'
p1218
aS'VOG9191'
p1219
aS'VOG9192'
p1220
aS'VOG9193'
p1221
aS'VOG9195'
p1222
aS'VOG9203'
p1223
aS'VOG9209'
p1224
aS'VOG9211'
p1225
aS'VOG9234'
p1226
aS'VOG9237'
p1227
aS'VOG9243'
p1228
aS'VOG9244'
p1229
aS'VOG9258'
p1230
aS'VOG9259'
p1231
aS'VOG9260'
p1232
aS'VOG9261'
p1233
aS'VOG9262'
p1234
aS'VOG9274'
p1235
aS'VOG9286'
p1236
aS'VOG9288'
p1237
aS'VOG9305'
p1238
aS'VOG9306'
p1239
aS'VOG9308'
p1240
aS'VOG9310'
p1241
aS'VOG9315'
p1242
aS'VOG9322'
p1243
aS'VOG9323'
p1244
aS'VOG9325'
p1245
aS'VOG9328'
p1246
aS'VOG9339'
p1247
aS'VOG9340'
p1248
aS'VOG9348'
p1249
aS'VOG9358'
p1250
aS'VOG9359'
p1251
aS'VOG9360'
p1252
aS'VOG9361'
p1253
aS'VOG9362'
p1254
aS'VOG9363'
p1255
aS'VOG9364'
p1256
aS'VOG9365'
p1257
aS'VOG9366'
p1258
aS'VOG9367'
p1259
aS'VOG9368'
p1260
aS'VOG9369'
p1261
aS'VOG9370'
p1262
aS'VOG9371'
p1263
aS'VOG9373'
p1264
aS'VOG9374'
p1265
aS'VOG9375'
p1266
aS'VOG9376'
p1267
aS'VOG9377'
p1268
aS'VOG9378'
p1269
aS'VOG9379'
p1270
aS'VOG9380'
p1271
aS'VOG9381'
p1272
aS'VOG9382'
p1273
aS'VOG9383'
p1274
aS'VOG9384'
p1275
aS'VOG9385'
p1276
aS'VOG9386'
p1277
aS'VOG9387'
p1278
aS'VOG9388'
p1279
aS'VOG9389'
p1280
aS'VOG9390'
p1281
aS'VOG9391'
p1282
aS'VOG9392'
p1283
aS'VOG9393'
p1284
aS'VOG9394'
p1285
aS'VOG9395'
p1286
aS'VOG9396'
p1287
aS'VOG9397'
p1288
aS'VOG9404'
p1289
aS'VOG9410'
p1290
aS'VOG9414'
p1291
aS'VOG9415'
p1292
aS'VOG9417'
p1293
aS'VOG9420'
p1294
aS'VOG9425'
p1295
aS'VOG9429'
p1296
aS'VOG9431'
p1297
aS'VOG9433'
p1298
aS'VOG9434'
p1299
aS'VOG9437'
p1300
aS'VOG9438'
p1301
aS'VOG9446'
p1302
aS'VOG9447'
p1303
aS'VOG9453'
p1304
aS'VOG9454'
p1305
aS'VOG9462'
p1306
aS'VOG9475'
p1307
aS'VOG9481'
p1308
aS'VOG9485'
p1309
aS'VOG9487'
p1310
aS'VOG9493'
p1311
aS'VOG9502'
p1312
aS'VOG9509'
p1313
aS'VOG9532'
p1314
aS'VOG9534'
p1315
aS'VOG9539'
p1316
aS'VOG9551'
p1317
aS'VOG9556'
p1318
aS'VOG9563'
p1319
aS'VOG9572'
p1320
aS'VOG9573'
p1321
aS'VOG9586'
p1322
aS'VOG9588'
p1323
aS'VOG9629'
p1324
aS'VOG9632'
p1325
aS'VOG9639'
p1326
aS'VOG9657'
p1327
aS'VOG9659'
p1328
aS'VOG9661'
p1329
aS'VOG9663'
p1330
aS'VOG9667'
p1331
aS'VOG9686'
p1332
aS'VOG9690'
p1333
aS'VOG9697'
p1334
aS'VOG9701'
p1335
aS'VOG9702'
p1336
aS'VOG9705'
p1337
aS'VOG9709'
p1338
aS'VOG9710'
p1339
aS'VOG9712'
p1340
aS'VOG9717'
p1341
aS'VOG9718'
p1342
aS'VOG9719'
p1343
aS'VOG9720'
p1344
aS'VOG9721'
p1345
aS'VOG9722'
p1346
aS'VOG9723'
p1347
aS'VOG9724'
p1348
aS'VOG9725'
p1349
aS'VOG9726'
p1350
aS'VOG9727'
p1351
aS'VOG9728'
p1352
aS'VOG9729'
p1353
aS'VOG9730'
p1354
aS'VOG9731'
p1355
aS'VOG9732'
p1356
aS'VOG9733'
p1357
aS'VOG9736'
p1358
aS'VOG9738'
p1359
aS'VOG9740'
p1360
aS'VOG9741'
p1361
aS'VOG9746'
p1362
aS'VOG9747'
p1363
aS'VOG9761'
p1364
aS'VOG9771'
p1365
aS'VOG9773'
p1366
aS'VOG9778'
p1367
aS'VOG9787'
p1368
aS'VOG9788'
p1369
aS'VOG9789'
p1370
aS'VOG9790'
p1371
aS'VOG9791'
p1372
aS'VOG9792'
p1373
aS'VOG9793'
p1374
aS'VOG9795'
p1375
aS'VOG9797'
p1376
aS'VOG9798'
p1377
aS'VOG9799'
p1378
aS'VOG9803'
p1379
aS'VOG9804'
p1380
aS'VOG9809'
p1381
aS'VOG9810'
p1382
aS'VOG9821'
p1383
aS'VOG9834'
p1384
aS'VOG9836'
p1385
aS'VOG9839'
p1386
aS'VOG9857'
p1387
aS'VOG9869'
p1388
aS'VOG9873'
p1389
aS'VOG9876'
p1390
aS'VOG9904'
p1391
aS'VOG9915'
p1392
aS'VOG9916'
p1393
aS'VOG9917'
p1394
aS'VOG9922'
p1395
aS'VOG9924'
p1396
aS'VOG9941'
p1397
aS'VOG9948'
p1398
aS'VOG9957'
p1399
aS'VOG9959'
p1400
aS'VOG9995'
p1401
aS'VOG10005'
p1402
aS'VOG10009'
p1403
aS'VOG10016'
p1404
aS'VOG10022'
p1405
aS'VOG10023'
p1406
aS'VOG10026'
p1407
aS'VOG10038'
p1408
aS'VOG10044'
p1409
aS'VOG10059'
p1410
aS'VOG10065'
p1411
aS'VOG10069'
p1412
aS'VOG10080'
p1413
aS'VOG10086'
p1414
aS'VOG10088'
p1415
aS'VOG10095'
p1416
aS'VOG10106'
p1417
aS'VOG10155'
p1418
aS'VOG10157'
p1419
aS'VOG10158'
p1420
aS'VOG10195'
p1421
aS'VOG10217'
p1422
aS'VOG10224'
p1423
aS'VOG10227'
p1424
aS'VOG10254'
p1425
aS'VOG10264'
p1426
aS'VOG10277'
p1427
aS'VOG10284'
p1428
aS'VOG10285'
p1429
aS'VOG10286'
p1430
aS'VOG10292'
p1431
aS'VOG10294'
p1432
aS'VOG10330'
p1433
aS'VOG10342'
p1434
aS'VOG10343'
p1435
aS'VOG10352'
p1436
aS'VOG10371'
p1437
aS'VOG10429'
p1438
aS'VOG10443'
p1439
aS'VOG10448'
p1440
aS'VOG10452'
p1441
aS'VOG10453'
p1442
aS'VOG10454'
p1443
aS'VOG10456'
p1444
aS'VOG10460'
p1445
aS'VOG10462'
p1446
aS'VOG10471'
p1447
aS'VOG10512'
p1448
aS'VOG10520'
p1449
aS'VOG10522'
p1450
aS'VOG10538'
p1451
aS'VOG10544'
p1452
aS'VOG10570'
p1453
aS'VOG10596'
p1454
aS'VOG10608'
p1455
aS'VOG10633'
p1456
aS'VOG10634'
p1457
aS'VOG10636'
p1458
aS'VOG10637'
p1459
aS'VOG10638'
p1460
aS'VOG10641'
p1461
aS'VOG10654'
p1462
aS'VOG10666'
p1463
aS'VOG10674'
p1464
aS'VOG10717'
p1465
aS'VOG10719'
p1466
aS'VOG10724'
p1467
aS'VOG10737'
p1468
aS'VOG10738'
p1469
aS'VOG10739'
p1470
aS'VOG10763'
p1471
aS'VOG10787'
p1472
aS'VOG10842'
p1473
aS'VOG10856'
p1474
aS'VOG10861'
p1475
aS'VOG10868'
p1476
aS'VOG10870'
p1477
aS'VOG10880'
p1478
aS'VOG10883'
p1479
aS'VOG10887'
p1480
aS'VOG10898'
p1481
aS'VOG10909'
p1482
aS'VOG10914'
p1483
aS'VOG10915'
p1484
aS'VOG10916'
p1485
aS'VOG10917'
p1486
aS'VOG10920'
p1487
aS'VOG10930'
p1488
aS'VOG10934'
p1489
aS'VOG10942'
p1490
aS'VOG10943'
p1491
aS'VOG10944'
p1492
aS'VOG10945'
p1493
aS'VOG10951'
p1494
aS'VOG10953'
p1495
aS'VOG10957'
p1496
aS'VOG10962'
p1497
aS'VOG10967'
p1498
aS'VOG10969'
p1499
aS'VOG10971'
p1500
aS'VOG10972'
p1501
aS'VOG10978'
p1502
aS'VOG10979'
p1503
aS'VOG10986'
p1504
aS'VOG10993'
p1505
aS'VOG10995'
p1506
aS'VOG11009'
p1507
aS'VOG11016'
p1508
aS'VOG11017'
p1509
aS'VOG11026'
p1510
aS'VOG11048'
p1511
aS'VOG11053'
p1512
aS'VOG11065'
p1513
aS'VOG11070'
p1514
aS'VOG11071'
p1515
aS'VOG11075'
p1516
aS'VOG11080'
p1517
aS'VOG11081'
p1518
atp1519
bsg36
Nstp1520
Rp1521
a(lp1522
g19
(g20
(I0
tp1523
g22
tp1524
Rp1525
(I1
(I2
I1474
tp1526
g29
I00
(lp1527
S'V protein'
p1528
aS'major coat protein'
p1529
aS'phage assembly protein'
p1530
aS'Vpf491'
p1531
aS'putative minor coat protein'
p1532
aS'putative transcription regulator'
p1533
aS'DNA replication initiation protein'
p1534
aS'putative major coat protein'
p1535
aS'S-adenosyl-L-methionine hydrolase'
p1536
aS'DNA ligase'
p1537
aS'RNA polymerase'
p1538
aS'putative DNA helicase'
p1539
aS'DNA polymerase'
p1540
aS'exonuclease'
p1541
aS'head-tail connector protein'
p1542
aS'capsid assembly protein'
p1543
aS'tail tubular protein B'
p1544
aS'internal virion protein A'
p1545
aS'internal virion protein C'
p1546
aS'internal virion protein D'
p1547
aS'type II holin'
p1548
aS'superinfection exclusion protein'
p1549
aS'RtcB'
p1550
aS'dCMP deaminase'
p1551
aS'terminase large subunit'
p1552
aS'RNA polymerase sigma factor'
p1553
aS'holin'
p1554
aS'P-starvation inducible protein'
p1555
aS'major capsid protein'
p1556
aS'tail sheath protein'
p1557
aS'recombination endonuclease subunit'
p1558
aS"deoxyuridine 5'-triphosphate nucleotidohydrolase"
p1559
aS'ribonucleotide reductase'
p1560
aS'thymidylate synthase'
p1561
ag1552
ag1554
aS'serine/threonine protein phosphatase'
p1562
aS'maturation protein'
p1563
aS'replicase'
p1564
aS'gpA'
p1565
aS'gpA*'
p1566
aS'gpB'
p1567
aS'gpK'
p1568
aS'gpC'
p1569
aS'gpD'
p1570
aS'gpE'
p1571
aS'gpJ'
p1572
aS'gpF'
p1573
aS'gpG'
p1574
aS'gpH'
p1575
ag1533
aS'DNA replication protein'
p1576
aS'putative head-tail joining protein'
p1577
ag1577
aS'putative tail component protein'
p1578
aS'integrase'
p1579
aS'tail fiber assembly protein'
p1580
aS'ParB'
p1581
aS'Gp63'
p1582
aS'LysC'
p1583
aS'Doc'
p1584
aS'terminase small subunit'
p1585
aS'portal protein'
p1586
aS'DNA stabilization protein'
p1587
ag1587
aS'head assembly protein'
p1588
aS'DNA transfer protein'
p1589
ag1589
aS'O-antigen conversion protein C'
p1590
aS'GtrB'
p1591
ag1579
aS'Abc2 protein'
p1592
aS'Arf'
p1593
aS'Kil'
p1594
aS'CIII protein'
p1595
aS'SieB'
p1596
aS'antitermination protein N'
p1597
aS'NinB protein'
p1598
aS'NinE protein'
p1599
aS'NinF protein'
p1600
aS'NinG protein'
p1601
aS'late gene regulator Q'
p1602
aS'endopeptidase'
p1603
aS'Rz1 protein'
p1604
aS'Gp18 protein'
p1605
aS'Gp45 protein'
p1606
ag1540
aS'putative DNA-packaging protein'
p1607
aS'nicotinamide phosphoribosyltransferase'
p1608
aS'prohead core scaffolding protein and protease'
p1609
aS'replication protein P'
p1610
ag1557
aS'NAD-dependent DNA ligase subunit A'
p1611
aS'DNA helicase'
p1612
aS'DNA topoisomerase II large subunit'
p1613
aS'DNA topisomerase II medium subunit'
p1614
aS'ADP-ribosylase'
p1615
aS'dUTPase'
p1616
aS'spackle periplasmic protein'
p1617
aS'head vertex assembly chaperone'
p1618
aS'clamp loader subunit'
p1619
aS'sliding clamp DNA polymerase accessory protein'
p1620
aS'RNA polymerase binding protein'
p1621
aS'alpha-glucosyl-transferase'
p1622
aS'anaerobic NTP reductase small subunit'
p1623
aS'anaerobic NTP reductase large subunit'
p1624
aS'inhibitor of host Lon protease'
p1625
aS'site-specific RNA endonuclease'
p1626
aS'nudix hydrolase'
p1627
aS'head completion protein'
p1628
aS'baseplate wedge subunit'
p1629
ag1629
aS'baseplate wedge subunit and tail pin'
p1630
ag1630
aS'fibritin'
p1631
aS'neck protein'
p1632
ag1632
aS'tail sheath stabilizer and completion protein'
p1633
aS'prohead core protein'
p1634
ag1634
aS'scaffold prohead core protein'
p1635
ag1556
aS'inhibitor of prohead protease'
p1636
aS'UvsY'
p1637
aS'baseplate hub subunit'
p1638
aS'baseplate hub distal subunit'
p1639
aS'baseplate hub subunit tail length determinator'
p1640
aS'baseplate tail tube cap'
p1641
aS'ADP-ribosyltransferase'
p1642
aS'lysis inhibition accessory protein'
p1643
aS'endonuclease II'
p1644
aS'dihydrofolate reductase'
p1645
aS'single-stranded DNA binding protein'
p1646
aS'holin lysis mediator'
p1647
aS'activator of middle period transcription'
p1648
aS'nucleoid disruption protein'
p1649
aS'Na/K ATPase'
p1650
aS'Panton-Valentine leukocidin chain S precursor'
p1651
aS'Panton-Valentine leukocidin chain F precursor'
p1652
aS'transcriptional activator RinB'
p1653
aS'capsid-scaffolding protein'
p1654
aS'terminase endonuclease subunit'
p1655
aS'head completion-stabilization protein'
p1656
aS'tail synthesis protein X'
p1657
aS'tail protein'
p1658
aS'tail formation protein I'
p1659
aS'major tail tube protein'
p1660
ag1658
aS'replication protein A'
p1661
ag1554
ag1572
aS'scaffolding protein'
p1662
ag1585
aS'lysin'
p1663
ag1554
aS'DNA encapsidation protein'
p1664
ag1554
aS'lower collar protein'
p1665
aS'major head protein'
p1666
aS'upper collar protein'
p1667
ag1658
aS'putative minor structural protein'
p1668
aS'putative DNA polymerase I'
p1669
aS'RNA ligase'
p1670
ag1568
ag1586
aS'minor capsid protein'
p1671
ag1556
aS'putative minor capsid protein'
p1672
ag1672
ag1554
aS'FtsK/SpoIIIE protein'
p1673
aS'conserved phage protein'
p1674
ag1586
ag1554
aS'putative topoisomerase'
p1675
aS'Rad52/22 family double-strand break repair protein'
p1676
aS'capsid protein'
p1677
ag1554
aS'excisionase'
p1678
ag1585
aS'major tail protein'
p1679
aS'head-tail adaptor'
p1680
ag1678
aS'mobile element protein'
p1681
aS'putative single-stranded DNA binding protein'
p1682
aS'Bor protein precursor'
p1683
aS'terminase small subunit nu1'
p1684
aS'head-to-tail joining protein'
p1685
ag1586
aS'head-DNA stabilization protein'
p1686
aS'DNA packaging protein'
p1687
aS'head-tail connector Fii'
p1688
aS'minor tail protein'
p1689
aS'minor tail protein U'
p1690
aS'minor tail protein G'
p1691
ag1689
ag1689
ag1689
ag1658
aS'attachment invasion locus protein precursor'
p1692
aS'terminal protein'
p1693
aS'transcriptional regulator'
p1694
aS'single stranded DNA-binding protein'
p1695
aS'dsDNA binding protein'
p1696
ag1662
aS'head fiber protein'
p1697
aS'DNA replication organizer'
p1698
aS'putative protein 16.8'
p1699
aS'putative terminase small subunit'
p1700
aS'putative strucural protein 2'
p1701
aS'putative strucural protein 4'
p1702
ag1554
aS'putative sak protein'
p1703
aS'putative structural protein'
p1704
aS'putative DNA polymerase subunit'
p1705
aS'putative strucural protein 3'
p1706
aS'neck passage structure'
p1707
aS'transposase'
p1708
ag1681
aS'shiga-like toxin II subunit A precursor'
p1709
aS'Shiga toxin 2 subunit B'
p1710
aS'Putative small subunit (Nu1 homolog) of DNA packaging dimer'
p1711
ag1556
aS'retron-type RNA-directed DNA polymerase'
p1712
aS'ParA'
p1713
aS'protelomerase'
p1714
aS'gp55 protein'
p1715
aS'putative endolysin'
p1716
ag1619
ag1638
aS'queuosine biosynthesis QueE radical SAM'
p1717
aS'portal vertex protein'
p1718
aS'tail tube protein'
p1719
aS'sigma factor for late transcription'
p1720
aS'QueC'
p1721
ag1708
aS'thymidine kinase'
p1722
aS'nucleotide-sugar epimerase'
p1723
aS'gp4'
p1724
aS'putative co-chaperonin GroES'
p1725
aS'putative HTH transcription regulator'
p1726
aS'UDP-galactopyranose mutase'
p1727
aS'EPS-depolymerase'
p1728
ag1585
ag1556
aS'major tail subunit'
p1729
ag1689
ag1689
aS'RNaseE'
p1730
ag1689
ag1689
ag1689
aS'gp81'
p1731
aS'gp40'
p1732
ag1586
ag1556
aS'DNA polymerase III alpha subunit'
p1733
aS'galactosyltransferase'
p1734
aS'glycosyltransferase'
p1735
aS'tail assembly chaperone'
p1736
ag1689
ag1554
aS'Lsr2'
p1737
aS'gp13'
p1738
aS'predicted hydrolase'
p1739
aS'CHC2 zinc finger protein'
p1740
aS'conserved hypothetical protein'
p1741
aS'putative methyltransferase'
p1742
ag1741
aS'RecT'
p1743
aS'PcfU'
p1744
ag1741
ag1666
ag1556
aS'HNH endonuclease'
p1745
aS'nicotinamide mononucleotide transporter'
p1746
aS'putative Sir2-like protein'
p1747
aS'transaldolase-like protein'
p1748
aS'DUF680 domain-containing protein'
p1749
aS'photosystem II D1 protein'
p1750
aS'high light inducible protein'
p1751
aS'tail fiber protein'
p1752
ag1700
aS'putative tail protein'
p1753
ag1736
ag1689
aS'DNA primase'
p1754
aS'gp63'
p1755
aS'gp80'
p1756
aS'gp75'
p1757
ag1581
aS'esterase/lipase'
p1758
aS'translation repressor'
p1759
aS'base plate hub assembly catalyst'
p1760
aS'head assembly cochaperone with GroEL'
p1761
aS'tRNA nucleotidyltransferase'
p1762
aS'loader of DNA helicase'
p1763
aS'late promoter transcription accessory protein'
p1764
aS'anti-sigma 70 protein'
p1765
aS'NudE nudix hydrolase'
p1766
aS'gp35 hinge long tail fiber proximal connector'
p1767
ag1738
aS'putative terminase large subunit'
p1768
ag1556
ag1554
aS'cell adhesion domain-containing protein'
p1769
aS'putative portal protein'
p1770
aS'AAA ATPase'
p1771
aS'small outer capsid protein'
p1772
aS'internal head protein'
p1773
aS'homing endonuclease'
p1774
aS'hinge connector of long tail fiber proximal connector'
p1775
aS'DNA endonuclease IV'
p1776
aS'gp5'
p1777
aS'gp8'
p1778
aS'gp3'
p1779
aS'phosphoribosyl transferase'
p1780
ag1585
aS'Cor protein'
p1781
aS'serine/threonine kinase'
p1782
ag1687
aS'putative major tail protein'
p1783
aS'methyltransferase'
p1784
aS'Ren protein'
p1785
aS'major tropism determinant'
p1786
aS'transposase A'
p1787
aS'acridine resistance protein'
p1788
aS'putative tail tube protein'
p1789
aS'putative tail sheath protein'
p1790
aS'CI'
p1791
ag1554
aS'Apl'
p1792
ag1671
aS'replication protein VP4'
p1793
aS'major capsid protein VP1'
p1794
aS'internal scaffolding protein VP3'
p1795
aS'protein kinase'
p1796
aS'host dGTPase inhibitor'
p1797
aS'gp1.5'
p1798
aS'host RNA polymerase inhibitor'
p1799
ag1745
aS'guanylate kinase'
p1800
aS'ribonucleoside triphosphate reductase, alpha chain'
p1801
aS'virion RNA polymerase'
p1802
ag1529
ag1586
ag1695
aS'phage lambda Rz1-like protein'
p1803
aS'valyl-tRNA synthetase modifier'
p1804
aS'transcription modulator'
p1805
aS'distal long tail fiber assembly catalyst'
p1806
aS'IpI'
p1807
ag1779
ag1736
ag1689
ag1554
aS'antirestriction protein'
p1808
aS'gp1'
p1809
ag1585
ag1736
aS'gp28'
p1810
aS'gp31'
p1811
aS'metallophosphoesterase'
p1812
aS'gp2'
p1813
aS'gp9'
p1814
aS'gp16'
p1815
aS'gp24'
p1816
ag1736
ag1810
aS'gp33'
p1817
aS'gp34'
p1818
ag1809
aS'gp59'
p1819
ag1813
ag1554
aS'HTH DNA binding protein'
p1820
aS'GIY-YIG endonuclease'
p1821
ag1820
aS'gp96'
p1822
aS'putative holin'
p1823
aS'putative transcriptional regulator'
p1824
aS'putative DNA primase'
p1825
aS'Ner-like protein'
p1826
aS'DNA transposition protein'
p1827
ag1557
aS'tail/DNA circulation protein'
p1828
ag1658
aS'putative head protein'
p1829
aS'Ser/Thr kinase'
p1830
ag1735
aS'gp18'
p1831
aS'gp21'
p1832
aS'LipC'
p1833
aS'AddA-like protein'
p1834
aS'gp205'
p1835
aS'Ku protein'
p1836
ag1724
aS'gp7'
p1837
aS'gp78'
p1838
aS'gp56'
p1839
aS'RDF protein'
p1840
aS'gp82'
p1841
aS'gp85'
p1842
aS'gp86'
p1843
ag1585
aS'enoyl-CoA-hydratase'
p1844
ag1784
aS'gp19'
p1845
aS'gp91'
p1846
aS'gp94'
p1847
aS'gp148'
p1848
aS'gp131'
p1849
ag1835
ag1777
aS'phosphoesterase'
p1850
aS'tyrosine phosphatase'
p1851
aS'gp37'
p1852
ag1724
aS'gp67'
p1853
ag1809
ag1779
aS'gp139'
p1854
aS'RecA'
p1855
aS'ATP-dependent helicase'
p1856
ag1556
aS'maturation/adhesion protein'
p1857
ag1841
ag1831
aS'gp22'
p1858
aS'gp29'
p1859
aS'gp30'
p1860
aS'gp15'
p1861
aS'FtsK-like protein'
p1862
aS'gp90'
p1863
aS'GTP cyclohydrolase I'
p1864
aS'putative tail fiber'
p1865
aS'phosphatidylglycerophosphatase A'
p1866
aS'IMP dehydrogenase/GMP reductase'
p1867
aS'small acid-soluble spore protein'
p1868
ag1539
aS'Ser/Thr protein phosphatase family protein'
p1869
aS'putative UV damage repair endonuclease'
p1870
aS'virion structural protein'
p1871
ag1871
aS'putative helicase'
p1872
ag1556
ag1871
ag1871
ag1790
aS'putative virion structural protein'
p1873
ag1873
aS'addiction module toxin, RelE/StbE family'
p1874
aS'Vpf76'
p1875
aS'activator of host PrrC lysyl-tRNA endonuclease'
p1876
aS'putative excisionase'
p1877
aS'minor coat protein'
p1878
ag1579
aS'putative HTH transcriptional regulator'
p1879
aS'helix-turn-helix protein'
p1880
aS'structural protein V1'
p1881
aS'structural protein VP3'
p1882
aS'VP2-like protein'
p1883
aS'NinD'
p1884
aS'host recBCD nuclease inhibitor'
p1885
aS'Cox'
p1886
aS'Hol'
p1887
aS'nonstructural protein'
p1888
aS'Gp29'
p1889
ag1817
aS'gp42 protein'
p1890
aS'transcription antiterminator'
p1891
aS'gp51'
p1892
ag1689
ag1779
aS'gp4a'
p1893
ag1777
aS'gp12'
p1894
ag1729
aS'GtrA'
p1895
aS'NinY'
p1896
aS'O-polysaccharide acetyltransferase protein'
p1897
ag1533
ag1678
aS'CRISPR-associated Cas4-like protein'
p1898
ag1872
aS'DNA binding protein'
p1899
aS'putative regulatory protein'
p1900
ag1900
aS'structural protein'
p1901
ag1901
aS'putative glycosyltransferase'
p1902
aS'gp32'
p1903
ag1732
aS'gp46'
p1904
aS'exfoliative toxin A'
p1905
aS'gp8, conserved hypothetical protein'
p1906
aS'gp71'
p1907
aS'gp17'
p1908
aS'gp26, bacteriophage lysis protein'
p1909
aS'gp27'
p1910
ag1859
ag1860
ag1811
aS'gp32, hypothetical protein'
p1911
aS'gp45, hypothetical protein'
p1912
ag1755
aS'putative chromosome partitioning protein'
p1913
aS'gp62'
p1914
ag1724
aS'gp65'
p1915
aS'gp43, conserved domain protein'
p1916
aS'putative integral membrane protein'
p1917
aS'putative transposase'
p1918
ag1658
aS'putative protease'
p1919
ag1845
aS'BcepNY3gp56'
p1920
ag1914
ag1662
ag1666
ag1678
aS'77ORF046'
p1921
ag1871
aS'thymidylate kinase'
p1922
aS'putative SNF2 domain helicase'
p1923
aS'putative endoprotease'
p1924
ag1556
aS"Rz1 gp24'"
p1925
aS'p11'
p1926
aS'p53'
p1927
aS'putative internal virion protein A'
p1928
ag1540
aS'putative glutathionylspermidine synthase'
p1929
aS'gp40, hypothetical protein'
p1930
ag1790
ag1813
ag1755
aS'A2 protein'
p1931
aS'D2 protein'
p1932
aS'D3 protein'
p1933
aS'D5 protein'
p1934
aS'tail protein Pb4'
p1935
ag1658
aS'pore-forming tail tip protein'
p1936
ag1689
aS'putative transposase A subunit'
p1937
aS'gp35'
p1938
aS'2OG-Fe(II) oxygenase'
p1939
ag1901
ag1871
aS'tail fiber-like protein'
p1940
aS'methylamine protein'
p1941
aS'peptidase'
p1942
aS'heat shock protein'
p1943
ag1871
aS'photosystem II D2 protein'
p1944
aS'S-adenosylmethionine decarboxylase'
p1945
aS'antenna protein'
p1946
ag1939
aS'ferrochelatase'
p1947
aS'tryptophan halogenase'
p1948
aS'phycoerythrobilin'
p1949
aS'CP12 protein'
p1950
aS'baseplate wedge initiator'
p1951
aS'DNA endonuclease V'
p1952
aS'5-phosphoribosylformylglycinamide amidotransferase'
p1953
aS'phosphoribosylaminoimidazole synthetase'
p1954
ag1954
aS'cytitidyltransferase'
p1955
aS'plasmid stability protein'
p1956
aS'plastocyanine'
p1957
aS'phosphate transporter subunit'
p1958
aS'glycosyltransferase family 11'
p1959
aS'glycosyltransferase family 25'
p1960
aS'ferredoxin'
p1961
aS'heme oxygenase'
p1962
aS'carbamoyltransferase'
p1963
aS'putative nucleotidyltransferase'
p1964
aS'putative carbohydrate kinase'
p1965
ag1964
aS'cAMP phosphodiesterase'
p1966
ag1901
aS'putative short tail fiber'
p1967
aS'hemagglutinin domain-containing protein'
p1968
ag1901
aS'plastoquinol terminal oxidase'
p1969
aS'S-layer domain protein'
p1970
aS'carboxylesterase'
p1971
aS'putative major capsid protein'
p1972
ag1813
aS'putative membrane protein'
p1973
ag1708
ag1918
aS'6-phosphogluconate dehydrogenase'
p1974
aS'glucose 6-phosphate dehydrogenase'
p1975
aS'DUF1583 domain-containing protein'
p1976
aS'putative phosphatase'
p1977
aS'putative bacterial NUDIX hydrolase'
p1978
aS'phosphoribosylaminoimidazole-succinocarboxamide synthase'
p1979
aS'PA14 domain-containing protein'
p1980
aS'RNA-dependent RNA polymerase'
p1981
ag1552
aS'tape measure protein'
p1982
aS'lysin A'
p1983
aS'helicase'
p1984
aS'glutaredoxin'
p1985
ag1754
ag1556
ag1662
ag1586
ag1729
ag1689
aS'lysin B'
p1986
ag1561
aS'ribonucleotide reductase subunit B'
p1987
aS'lysozyme'
p1988
aS'DNA methylase'
p1989
ag1689
ag1989
ag1556
ag1983
ag1558
ag1540
ag1736
aS'WhiB'
p1990
aS'baseplate hub subunit and tail lysozyme'
p1991
ag1679
aS'D-ala-D-ala carboxypeptidase'
p1992
aS'baseplate wedge tail fiber connector'
p1993
aS'tail tubular protein A'
p1994
aS'protector from prophage-induced early lysis'
p1995
aS'DNA end protector protein'
p1996
ag1752
aS'minor structural protein'
p1997
ag1541
ag1556
ag1904
ag1586
ag1754
aS'replicative helicase'
p1998
aS'internal virion protein B'
p1999
aS'putative tail lysin'
p2000
ag1809
aS'hinge connector of long tail fiber distal connector'
p2001
ag1735
ag1658
ag1729
ag1736
aS'tailspike protein'
p2002
aS'capsid maturation protease'
p2003
aS'baseplate J'
p2004
aS'LysB'
p2005
aS'putative tail fiber protein'
p2006
aS'putative helicase-primase'
p2007
ag1663
ag1579
aS'virion morphogenesis protein'
p2008
ag1991
ag1989
aS'putative antireceptor'
p2009
aS'pre-neck appendage protein'
p2010
aS'putative replication origin binding protein'
p2011
ag1859
ag1983
aS'assembly protein'
p2012
aS'tailspike 63D sialidase'
p2013
aS'head maturation protease'
p2014
ag1674
ag1990
aS'putative poly A polymerase'
p2015
aS'glycosyltransferase/methyl transferase'
p2016
ag1858
ag1901
aS'morphogenesis protein'
p2017
aS'gp54'
p2018
ag1694
ag1541
ag1629
ag1585
aS'tail completion and sheath stabilizer protein'
p2019
ag1670
aS'tail assembly protein'
p2020
ag1629
ag1716
aS'RecE'
p2021
ag1556
aS'inhibitor of host transcription'
p2022
aS'ribonuclease H'
p2023
aS'baseplate wedge protein'
p2024
aS'modifier of suppressor tRNAs'
p2025
aS'gp6'
p2026
aS'flavodoxin'
p2027
ag1989
ag1658
ag1658
aS'Kil protein'
p2028
aS'glycosyl transferase'
p2029
ag1689
ag1689
aS'peptidase_S74 domain protein'
p2030
ag1585
aS'N-acetylmuramoyl-L-alanine amidase'
p2031
aS'capsid portal protein Q'
p2032
aS'gp11'
p2033
aS'histidine triad domain protein'
p2034
aS'DNA delivery'
p2035
ag1753
ag1679
aS'endolysin'
p2036
aS'O-methyltransferase'
p2037
aS'putative ribonuclease H'
p2038
aS'NAD-dependent DNA ligase'
p2039
aS'modifier of transcription'
p2040
aS'tapemeasure'
p2041
aS'DNA packaging ATPase'
p2042
aS'gp74'
p2043
ag1658
aS'Hoc large outer capsid protein'
p2044
ag1774
aS'putative baseplate wedge protein'
p2045
aS'long tail fiber distal subunit'
p2046
aS'gp142'
p2047
ag1811
ag1990
ag1738
ag1700
ag1663
ag1877
aS'recombinase'
p2048
aS'internal (core) protein'
p2049
aS'LysM domain-containing protein'
p2050
aS'tailspike'
p2051
aS'DR0530-like primase'
p2052
aS'distal tail protein'
p2053
aS'late control D protein'
p2054
ag1658
aS'putative peptidase M23'
p2055
ag1823
aS'Uncharacterized protein MJ0770'
p2056
aS'ATPase family protein'
p2057
aS'lytic protein Rz1'
p2058
ag1871
aS'HTH DNA binding domain protein'
p2059
aS'Vs valyl-tRNA synthetase modifier'
p2060
ag1668
ag1938
ag1754
aS'glycerophosphoryl diesterphosphodiesterase'
p2061
ag1586
aS'putative site-specific intron-like DNA endonuclease'
p2062
ag2020
aS'head morphogeneis protein'
p2063
ag1663
aS'virion-associated phage protein'
p2064
aS'CHAP domain protein'
p2065
aS'DarB-like antirestriction protein'
p2066
aS'replication protein'
p2067
aS'partition protein ParB'
p2068
aS'putative gp37'
p2069
aS'gp10'
p2070
ag1738
ag1824
aS'DarB'
p2071
aS'Ant1'
p2072
aS'gp41, hypothetical protein'
p2073
aS'gp43'
p2074
ag1918
aS'putative phage repressor'
p2075
aS'cytosine-specific DNA methyltransferase'
p2076
aS'gp61'
p2077
aS'gp23'
p2078
ag1817
aS'tail fiber'
p2079
ag2070
aS'phage terminase large subunit'
p2080
aS'putative endonuclease'
p2081
aS'gp50'
p2082
ag1989
aS'gp20'
p2083
aS'putative bifunctional DNA primase/polymerase'
p2084
ag1736
aS'metal-dependent hydrolase'
p2085
ag1724
aS'Ro protein'
p2086
aS'putative DNA-PolB associated exonuclease'
p2087
ag1865
ag2041
ag1835
aS'HNH endonuclease domain protein'
p2088
ag1901
aS'membrane protein'
p2089
ag1901
aS'replicative clamp'
p2090
ag1974
aS'DNA polymerase III beta subunit'
p2091
aS'restriction endonuclease'
p2092
aS'TreO'
p2093
aS'putative head stabilization/decoration protein'
p2094
ag2079
ag1752
aS'replication terminator protein'
p2095
ag2027
aS'putative DNA methylase'
p2096
aS'TreB'
p2097
aS'putative peptidase'
p2098
ag1554
aS'neck passage structure protein'
p2099
aS'transposase-like protein'
p2100
aS'putative outer membrane protein'
p2101
aS'colanic acid-degrading protein'
p2102
ag2028
aS'positive control sigma-like factor'
p2103
aS'putative peptidyl-tRNA hydrolase'
p2104
aS'TreA'
p2105
ag1554
ag1680
aS'NAD-dependent DNA ligase subunit B'
p2106
ag1752
aS'pre-TMP frameshift protein'
p2107
aS'RNAse H'
p2108
aS'pre-tape measure frameshift protein G-T'
p2109
aS'putative phage tail protein'
p2110
ag1700
ag1704
ag1823
aS'constituent protein'
p2111
aS'major capsid & capsid maturation protease'
p2112
aS'head-to-tail connector'
p2113
ag1679
ag1689
ag1529
ag2078
aS'putative DNA primase/polymerase'
p2114
ag1586
aS'recombination protein U'
p2115
aS'topoisomerase II large subunit'
p2116
aS'beta glucosyl transferase'
p2117
ag1901
aS'VI protein'
p2118
ag2059
aS'putative DNA N6-adenine methyltransferase'
p2119
ag1831
aS'rare lipoprotein A'
p2120
ag1900
aS'putative phage DNA primase'
p2121
ag1901
ag1771
aS'pectate lyase'
p2122
ag1541
ag1901
ag2041
aS'gp26'
p2123
ag1852
ag1915
aS'putative cell division control protein'
p2124
aS'receptor-binding tail protein'
p2125
ag1967
ag1967
aS'putative minor structural protein 1'
p2126
aS'putative lower collar protein'
p2127
aS'putative cell wall hydrolase protein'
p2128
aS'carboxypeptidase A'
p2129
aS'putative primase'
p2130
aS'putative DNA replication protein'
p2131
ag1658
ag2048
ag1773
aS'phospho-2-dehydro-3-deoxyheptonate aldolase'
p2132
ag1774
aS'MazG'
p2133
aS'prohead protease'
p2134
aS'Appr-1-p processing protein'
p2135
ag2006
aS'putative encapsidation protein'
p2136
aS'DNA pilot protein VP2'
p2137
aS'putative DHH phosphoesterase protein'
p2138
aS'HTH binding protein'
p2139
ag1658
aS'putative pre-tape measure chaperone protein'
p2140
aS'putative tape measure protein'
p2141
aS'tail lysozyme'
p2142
aS'complement inhibitor'
p2143
ag1989
ag1716
aS'coat protein'
p2144
aS'VP4 precursor'
p2145
aS'DnaA protein'
p2146
aS'receptor-blocking protein'
p2147
ag1556
ag1784
ag1704
aS'antioxidant protein'
p2148
aS'putative sporulation protein YhbH'
p2149
aS'putative IS transposase (OrfA)'
p2150
aS'putative DNA injection protein'
p2151
ag2003
ag1700
aS'receptor-binding protein'
p2152
aS'cell wall peptidase'
p2153
ag1586
aS'major capsid subunit'
p2154
ag1552
aS'LysM'
p2155
ag1689
ag1674
ag1662
aS'DNA polymerase IV'
p2156
aS'abortive infection bacteriophage resistance protein'
p2157
aS'pyruvate kinase'
p2158
aS'peptide deformylase'
p2159
ag1567
ag1871
aS'Rz'
p2160
ag1694
ag1552
aS'chaperonin GroEL'
p2161
ag2021
ag1629
ag2033
aS'putative adsorption protein'
p2162
ag1988
aS'von Willebrand factor domain protein'
p2163
ag1823
aS'EaC protein'
p2164
ag2006
aS'putative DNAse/helicase protein'
p2165
aS'LAGLIDADG endonuclease'
p2166
aS'AbrB family transcriptional regulator'
p2167
aS'putative transcriptional activator'
p2168
ag1753
ag1820
ag1754
aS'cell wall hydrolase'
p2169
ag1997
ag1754
aS'tail connector protein'
p2170
aS'PE/PPE-like protein'
p2171
aS'acetyltransferase'
p2172
aS'bacteriocin biosynthesis protein'
p2173
aS'putative rIIa-like protein'
p2174
aS'putative DNA polymerase'
p2175
aS'Cro-like protein'
p2176
aS'gp42'
p2177
aS'lytic protein Rz'
p2178
aS'DNA polymerase III subunit beta'
p2179
aS'LysA'
p2180
aS'putative 2-component regulator'
p2181
aS'QueF'
p2182
ag1824
aS'transposase InsH, IS5D, IS5 family'
p2183
aS'CRO protein'
p2184
aS'YolD-like protein'
p2185
aS'putative glucose-1-phosphate thymidylyltransferase'
p2186
aS'putative base plate lysozyme'
p2187
aS'adhesin'
p2188
ag1901
aS'chaperonin cpn10'
p2189
ag1901
ag1901
ag1901
ag1901
ag1901
ag2051
ag1540
aS'phage tail fiber protein'
p2190
aS'HicA-like protein'
p2191
ag1824
aS'gene transfer agent'
p2192
ag1689
aS'MutT/NUDIX hydrolase family protein'
p2193
ag1823
aS'bacterial surface protein'
p2194
aS'RNA polymerase ECF sigma factor'
p2195
ag1780
ag1736
aS'phage tail protein'
p2196
ag1752
aS'Tail fiber protein'
p2197
ag1754
aS'putative IS transposase (OrfB)'
p2198
aS'putative transglutaminase-like cysteine peptidase'
p2199
ag1672
aS'putative lectin-like domain protein'
p2200
ag1753
ag1753
aS'putative holin protein'
p2201
aS'putative inner membrane spanin component'
p2202
aS'putative outer membrane spanin component'
p2203
aS'putative HTH domain protein'
p2204
aS'putative TAT signal protein'
p2205
ag1585
aS'putative ArdC-like antirestriction protein'
p2206
ag1901
ag1901
ag1586
aS'tape measure'
p2207
aS'potassium voltage-gated channel subfamily A member 1 protein'
p2208
aS'putative small terminase subunit'
p2209
ag1736
ag1770
aS'putative rIIb-like protein'
p2210
aS'intein-containing putative terminase large subunit precursor'
p2211
ag1638
aS'putative HNH endonuclease inducing intron mobility'
p2212
aS'phage head-tail joining protein'
p2213
aS'RNA polymerase-ADP-ribosyltransferase Alt'
p2214
ag1899
aS'putative phage-related hydrogenase'
p2215
ag1662
ag1871
aS'staphylokinase'
p2216
aS'chemotaxis-inhibiting protein CHIPS'
p2217
aS'TerB'
p2218
aS'long tail fiber distal subunit adhesine'
p2219
aS'putative ABC transporter ATP-binding protein'
p2220
aS'ea59'
p2221
ag2175
aS'AlpA-like transcriptional regulator'
p2222
ag1784
aS'ATP-dependent metalloprotease'
p2223
ag1753
ag1556
aS'putative amidotransferase'
p2224
ag1585
aS'tRNA (cmo5U34)-methyltransferase'
p2225
aS'EaI protein'
p2226
aS'RecA-like recombination protein'
p2227
aS'glycosyltransferase-family protein'
p2228
ag1845
ag1871
aS'cI-like putative transcriptional regulator'
p2229
aS'phycobilisome degredation protein'
p2230
aS'VP4'
p2231
aS'putative phage structural protein'
p2232
aS'putative HD domain protein'
p2233
aS'type II restriction enzyme BsuBI'
p2234
aS'modification methylase BsuBI'
p2235
ag1873
ag1892
ag1811
ag1901
aS'RstB'
p2236
aS'YomR-like protein'
p2237
aS'RIIA-like protein'
p2238
ag1865
aS'conserved hypothetical protein (XkdN-like)'
p2239
aS'tail sheath'
p2240
aS'aerobic NDP reductase small subunit'
p2241
aS'putative DNA segregation ATPase FtsK/SpoIIIE'
p2242
aS'PemK-like protein'
p2243
aS'tail spike protein'
p2244
ag2070
aS'gp25'
p2245
ag1553
aS'replication factor C small subunit'
p2246
aS'Mu F-like capsid morphogenesis protein'
p2247
ag1871
ag1823
aS'regulator of chromosome condensation RCC1'
p2248
aS'putative lysozyme'
p2249
ag1557
aS'putative virion protein and lysozyme murein'
p2250
ag1784
aS'putative tail fiber protein 1'
p2251
ag1556
aS'VRR-NUC domain containing protein'
p2252
ag1989
ag1902
ag1542
aS'putative tail length tape measure protein'
p2253
ag1901
ag1901
aS'head outer capsid protein'
p2254
aS'gp165'
p2255
aS'base plate lysozyme'
p2256
ag1579
ag2006
ag1585
ag1745
aS'putative DNA endonuclease VII'
p2257
aS'site specific recombinase, tyrosine'
p2258
ag1553
ag2196
ag1529
aS'LydD'
p2259
aS'OdaA'
p2260
aS'PmgA'
p2261
aS'RepA'
p2262
aS'ShtB'
p2263
aS'putative S-adenosylmethionine synthetase'
p2264
aS'putative envelope protein'
p2265
ag1778
ag2033
ag1861
ag1832
ag2078
aS'virion protein'
p2266
ag1865
aS'peptidase-like protein'
p2267
ag1708
aS'capsid and scaffold protein'
p2268
aS'PblB-type protein'
p2269
ag1671
ag1553
aS'transcription regulatory protein'
p2270
aS'zinc-ribbon domain-containing protein'
p2271
aS'internal virion protein'
p2272
aS'PCNA protein'
p2273
ag1871
aS'RNA polymerase sigma-70 factor'
p2274
ag2064
ag1554
aS'helix-turn-helix domain protein'
p2275
ag1751
aS'phosphohydrolase'
p2276
ag1658
aS'PfWMP3_27'
p2277
ag1544
ag1994
aS'scaffold protein'
p2278
aS'enterotoxin type A precursor'
p2279
aS'160 kDa protein'
p2280
ag1873
ag2002
ag1755
ag1561
aS'ribonucleotide diphosphate reductas alpha subunit'
p2281
ag1901
aS'NAD+ synthetase'
p2282
aS'putative tail fiber adhesion protein'
p2283
ag1585
aS'putative ribosomal-protein-alanine N-acetyltransferase'
p2284
ag2010
aS'putative lysozyme-peptidase'
p2285
aS'putative DNA modification methylase'
p2286
aS'putative aminoacyl-tRNA hydrolase'
p2287
ag1752
aS'possible virion structural protein'
p2288
ag1971
aS'phenylalanyl-tRNA synthetase subunit beta'
p2289
ag2189
ag1901
ag1901
ag1901
aS'NifU-like protein'
p2290
ag1755
aS'beta-glucanase'
p2291
ag2177
aS'gp101'
p2292
ag1540
aS'helix-turn-helix XRE-family of transcriptional regulators'
p2293
ag1922
aS'major tail protein extension'
p2294
aS'pIII-CTX'
p2295
ag1900
ag1679
aS'RecA-like recombinase'
p2296
ag1871
ag1888
aS'HNH protein'
p2297
ag1918
aS'Gp40 protein'
p2298
aS'Gp41 protein'
p2299
aS'Gp7 protein'
p2300
aS'putative dehalogenase hydrolase-like protein'
p2301
aS'putative phosphoribosyltransferase-like domain protein'
p2302
aS'putative dTDP-4-dehydrorhamnose 3,5-epimerase'
p2303
ag1736
aS'putative virion structural protein 19'
p2304
ag2272
aS"putative RNA 2'-phosphotransferase"
p2305
aS'putative NAD+ diphosphatase'
p2306
aS'primase/polymerase'
p2307
aS'Cre'
p2308
aS'portal vertex protein of head'
p2309
aS'LydA'
p2310
aS'Phd'
p2311
ag2089
aS'minor tail protein L'
p2312
ag2005
aS'putative DNA binding protein'
p2313
ag1752
aS'putative nicotinamide mononucleotide transporter'
p2314
ag1753
ag2207
ag1752
ag1901
aS'deaminase'
p2315
ag2134
aS'middle expressed protein 4'
p2316
aS'putative bacterial RNA polymerase inhibitor'
p2317
aS'glycosidase'
p2318
aS'EaD protein'
p2319
ag1752
aS'phage DNA end protector during packaging'
p2320
ag2088
ag1552
ag1745
ag1783
aS'immunoglobulin I-set domain protein'
p2321
ag1658
aS'minor tail protein Z'
p2322
ag1752
ag1752
aS'C8'
p2323
aS'Mat'
p2324
aS'putative protein Ulx'
p2325
aS'Pro'
p2326
aS'conserved protein of unknown function, DdrB'
p2327
aS'Upf26.7'
p2328
aS'DarA'
p2329
aS'conserved protein of unknown function Hdf'
p2330
aS'LydB'
p2331
aS'gpR'
p2332
ag1815
aS'PmgB'
p2333
aS'major tail tube protein TubB'
p2334
aS'PmgC'
p2335
aS'putative outer membrane lipoprotein'
p2336
aS'Icd'
p2337
aS'RepL'
p2338
aS'Upf52.7'
p2339
aS'upf54.2'
p2340
aS'tail sheath protein Gp22'
p2341
aS'Upf57.5'
p2342
aS'Upf62.7'
p2343
aS'conserved protein of unknown function UpfB'
p2344
aS'Upf64.0'
p2345
aS'Dbn'
p2346
ag2026
aS'Upf78.5'
p2347
ag1837
ag2245
ag2123
aS'PmgN'
p2348
aS'putative morphogenetic protein PmgP'
p2349
aS'HdmD'
p2350
aS'PmgR'
p2351
aS'Fdc'
p2352
aS'Lpa'
p2353
aS'PacA'
p2354
aS'C1.100'
p2355
aS'Coi'
p2356
ag2185
aS'ea8.5'
p2357
aS'putative mitochondrial DNA polymerase gamma homologue'
p2358
ag1825
aS'DNA polymerase I-like flap endonuclease (FEN)'
p2359
aS'IS1 transposase B'
p2360
ag1532
ag2043
aS'gp87'
p2361
aS'gp114'
p2362
aS'gp135'
p2363
ag1819
ag1745
ag2083
ag1892
aS'gp97'
p2364
aS'lytic conversion lipoprotein precursor'
p2365
aS'BofR'
p2366
aS'head-tail connector'
p2367
aS'nucleoid-associated protein'
p2368
ag1901
ag1901
ag1554
aS'putative lysin'
p2369
ag2089
aS'glycosyl transferase group I'
p2370
ag1901
ag2224
aS'plasmid maintenance system killer HigB'
p2371
ag1554
ag2268
aS'core encoded pilin'
p2372
aS'accessory cholera enterotoxin'
p2373
ag1552
aS'tail protein P'
p2374
aS'formamidopyrimidine-DNA glycosylase'
p2375
aS'putative head-tail connector protein'
p2376
aS'Conserved hypothetical'
p2377
aS'lysophospholipase L1-related esterase'
p2378
ag2036
aS'acetyltransferase domain protein'
p2379
ag2088
aS'XRE family transcriptional regulator'
p2380
aS'S-layer domain-containing protein'
p2381
aS'Hypothetical-Protein '
p2382
aS'sulfotransferase'
p2383
ag1777
aS'gp69'
p2384
aS'palmitoyltransferase'
p2385
aS'Ea47 protein'
p2386
aS'Ea31 protein'
p2387
aS'putative excinuclease ABC'
p2388
ag1878
ag1852
aS'gp38'
p2389
aS'gp39'
p2390
aS'gp41'
p2391
aS'gp45'
p2392
aS'gp47'
p2393
ag1892
aS'Phage repressor'
p2394
ag1813
ag1724
ag1861
ag1831
ag1858
ag2078
ag2245
ag1888
aS'O-antigen beta polymerase'
p2395
ag1824
aS'ssDNA-binding'
p2396
aS'putative repressor'
p2397
ag2078
ag1810
aS'gp34.26'
p2398
aS'gp34 protein'
p2399
aS'gp03 protein'
p2400
ag1871
aS'putative Kelch-like ECH-associated protein'
p2401
ag1871
ag1871
ag1871
ag1871
ag1871
ag1871
ag1871
ag1871
ag1871
ag1871
ag1871
ag1871
ag1871
ag1871
aS'putative nucleotidyltransferase protein'
p2402
ag1819
ag1859
aS'putative Fe-S oxidoreductase'
p2403
ag2033
ag2382
ag1940
aS'PRGA-formyltransferase'
p2404
aS'putative protein 2'
p2405
aS'VP13'
p2406
aS'VP2'
p2407
aS'capsid protein VP5'
p2408
aS'putative protein 31'
p2409
aS'putative protein 33'
p2410
aS'putative terminase large subunit-like protein'
p2411
ag2389
aS'C-terminal part of the MCM2-like helicase'
p2412
ag2268
ag1752
aS'putative antirestriction protein'
p2413
ag1865
ag2020
ag1951
aS'putative topoisomerasae I protein'
p2414
aS'putative ATPase'
p2415
aS'trypsin-like serine protease domain protein'
p2416
aS'gp14-like protein'
p2417
aS'antirepressor'
p2418
aS'gp18.5'
p2419
ag1677
aS'glycerophosphodiester phosphodiesterase'
p2420
ag1629
ag1754
aS'putative quaternary ammonium compound-resistance protein qacE'
p2421
aS'gp134'
p2422
aS'Very-short-patch mismatch repair endonuclease'
p2423
aS'putative cytoplasmic protein'
p2424
aS'alkaline phosphatase'
p2425
aS'putative DNA binding excisionase protein'
p2426
aS'metallo-beta-lactamase domain-containing protein'
p2427
aS'putative SpoVG protein'
p2428
ag1552
aS'CobS porphyrin biosynthetic protein'
p2429
ag2006
aS'Possible tail sheath protein'
p2430
aS'Possible phage tail tube protein'
p2431
aS'putative transketolase'
p2432
aS'putative N-acetylneuraminate pyruvate lyase'
p2433
aS'putative minor tail assembly protein'
p2434
aS'putative UDP-glucose dehydrogenase'
p2435
ag1823
aS'HicB protein'
p2436
ag1752
aS'putative acetyltransferase'
p2437
aS'putative radical SAM superfamily protein 2'
p2438
aS'Hef nuclease'
p2439
aS'replication factor C large subunit'
p2440
aS'RadA'
p2441
ag1586
aS'gpF-like protein'
p2442
aS'zeta toxin domain protein'
p2443
ag1556
ag1736
aS'RNAse HI'
p2444
ag1540
ag1556
ag1752
aS'DUF3800 domain-containing protein'
p2445
ag1901
aS'VirE N-domain protein'
p2446
aS'gp77'
p2447
ag2130
aS'prophage protein'
p2448
aS'gp004'
p2449
ag1756
aS'gp241'
p2450
ag1809
aS'gp44'
p2451
ag1938
aS'tail tape measure chaperone protein'
p2452
aS'BTLCP-like protein'
p2453
ag1552
aS'putative protein containing Nos-D like domain'
p2454
aS'peptidase M15'
p2455
aS'putative homing endonuclease'
p2456
aS'elongation factor Ts-like protein'
p2457
aS'S-adenosylmethionine decarboxylase-like protein'
p2458
aS'putative peptidase-like protein'
p2459
aS'signal peptide protein'
p2460
aS'RelA/SpoT family protein'
p2461
ag1585
aS'DNA topoisomerase II large subunit C-terminal region'
p2462
ag1858
ag1671
aS'putative Transcription initiation factor B'
p2463
aS'packaging NTPase P4'
p2464
ag1572
aS'RNA ligase 2'
p2465
ag1861
ag2006
aS'chaperone protein DnaK'
p2466
aS'capsid decoration protein'
p2467
aS'gp14'
p2468
aS'prophage antirepressor'
p2469
ag1938
ag2046
ag2224
ag1878
ag1845
ag1997
ag1554
aS'o-spanin'
p2470
ag2389
ag1753
ag1658
ag1790
ag2006
aS'cytolethal distending toxin V B subunit'
p2471
aS'minor structural protein gp58'
p2472
aS'putative peptidase/serine protease'
p2473
aS'DNA polymerase subunit III'
p2474
aS'adenosylribosyltransferase'
p2475
aS'peptidase domain-containing protein'
p2476
aS'head morphogenesis protein'
p2477
aS'putative TROVE-like domain protein'
p2478
ag1824
aS'putative radical SAM superfamily protein 1'
p2479
ag1662
ag1901
ag1982
aS'gp53 protein'
p2480
ag1752
ag2141
aS'DNA-binding protein'
p2481
aS'putative crossover junction endodeoxyribonuclease RusA'
p2482
aS'Rec A-like recombinase'
p2483
aS'Other'
p2484
aS'Coat'
p2485
aS'Assembly'
p2486
ag2484
ag2485
ag2484
aS'Replication'
p2487
ag2485
ag2484
ag2487
ag2484
ag2487
ag2487
ag2484
aS'Other (structural)'
p2488
ag2486
aS'Tail'
p2489
ag2484
ag2484
ag2484
aS'Lysis'
p2490
ag2484
ag2484
ag2484
aS'Terminase'
p2491
ag2484
ag2490
ag2484
ag2485
ag2489
ag2484
ag2484
ag2484
ag2484
ag2491
ag2490
ag2484
ag2486
ag2487
ag2484
ag2484
ag2484
ag2484
ag2484
ag2484
ag2484
ag2484
ag2484
ag2484
ag2484
ag2484
ag2487
ag2488
ag2488
ag2489
aS'Integration'
p2492
ag2486
ag2484
ag2484
ag2484
ag2484
ag2491
aS'Portal'
p2493
ag2484
ag2484
ag2486
ag2484
ag2484
ag2484
ag2484
ag2492
ag2484
ag2484
ag2484
ag2484
ag2484
ag2484
ag2484
ag2484
ag2484
ag2484
ag2484
ag2484
ag2484
ag2484
ag2484
ag2487
ag2484
ag2484
ag2484
ag2487
ag2489
ag2487
ag2487
ag2487
ag2484
ag2484
ag2484
ag2484
ag2486
ag2484
ag2487
ag2484
ag2484
ag2484
ag2484
ag2484
ag2484
ag2484
ag2486
aS'Baseplate'
p2494
ag2494
ag2489
ag2489
ag2484
ag2484
ag2484
ag2486
ag2484
ag2484
ag2484
ag2485
ag2484
ag2484
ag2494
ag2494
ag2489
ag2489
ag2484
ag2484
ag2484
ag2484
ag2484
ag2490
ag2484
ag2484
ag2484
ag2484
ag2484
ag2484
ag2484
ag2491
ag2486
ag2489
ag2489
ag2486
ag2489
ag2489
ag2487
ag2490
ag2484
ag2484
ag2491
ag2490
ag2490
ag2486
ag2490
ag2484
ag2484
ag2484
ag2489
ag2484
ag2487
ag2484
ag2484
ag2493
ag2485
ag2485
ag2485
ag2485
ag2490
ag2484
ag2484
ag2493
ag2490
ag2487
ag2484
ag2485
ag2490
ag2484
ag2491
ag2489
ag2484
ag2484
ag2484
ag2484
ag2484
ag2491
ag2488
ag2493
ag2484
ag2484
ag2488
ag2489
ag2489
ag2489
ag2489
ag2489
ag2489
ag2489
ag2484
ag2484
ag2484
ag2484
ag2484
ag2484
ag2484
ag2487
ag2484
ag2491
ag2484
ag2484
ag2490
ag2484
ag2484
ag2487
ag2484
ag2484
ag2492
ag2484
ag2484
ag2484
ag2484
ag2485
ag2484
ag2484
ag2484
ag2484
ag2490
ag2484
ag2494
ag2484
ag2493
ag2489
ag2484
ag2484
ag2492
ag2484
ag2484
ag2484
ag2484
ag2484
ag2484
ag2487
ag2491
ag2485
ag2489
ag2489
ag2489
ag2484
ag2489
ag2489
ag2489
ag2484
ag2484
ag2493
ag2485
ag2487
ag2484
ag2484
ag2486
ag2489
ag2490
ag2484
ag2484
ag2484
ag2484
ag2484
ag2484
ag2484
ag2484
ag2484
ag2484
ag2484
ag2485
ag2484
ag2484
ag2484
ag2484
ag2484
ag2484
ag2484
ag2489
ag2491
ag2489
ag2486
ag2489
ag2487
ag2484
ag2484
ag2484
ag2484
ag2484
ag2484
ag2486
ag2486
ag2484
ag2487
ag2484
ag2484
ag2484
ag2488
ag2484
ag2491
ag2485
ag2490
ag2484
ag2493
ag2484
ag2485
ag2484
ag2484
ag2488
ag2484
ag2484
ag2484
ag2484
ag2484
ag2491
ag2484
ag2484
ag2484
ag2489
ag2484
ag2484
ag2484
ag2492
ag2484
ag2489
ag2489
ag2484
ag2490
ag2484
ag2485
ag2487
ag2485
ag2484
ag2484
ag2484
ag2484
ag2484
ag2484
ag2484
ag2484
ag2484
ag2485
ag2493
ag2484
ag2484
ag2484
ag2484
ag2486
ag2484
ag2484
ag2486
ag2489
ag2490
ag2484
ag2484
ag2491
ag2486
ag2484
ag2484
ag2484
ag2484
ag2484
ag2484
ag2484
ag2486
ag2484
ag2484
ag2484
ag2484
ag2484
ag2484
ag2490
ag2484
ag2484
ag2484
ag2484
ag2490
ag2484
ag2487
ag2484
ag2484
ag2489
ag2489
ag2489
ag2484
ag2484
ag2484
ag2484
ag2484
ag2484
ag2484
ag2484
ag2484
ag2484
ag2484
ag2484
ag2484
ag2484
ag2484
ag2484
ag2484
ag2491
ag2484
ag2484
ag2484
ag2484
ag2484
ag2484
ag2484
ag2484
ag2484
ag2484
ag2484
ag2484
ag2484
ag2484
ag2484
ag2484
ag2484
ag2484
ag2487
ag2485
ag2486
ag2484
ag2484
ag2484
ag2484
ag2484
ag2484
ag2484
ag2484
ag2484
ag2489
ag2484
ag2484
ag2484
ag2487
ag2484
ag2484
ag2484
ag2484
ag2487
ag2485
ag2484
ag2484
ag2489
ag2484
ag2484
ag2484
ag2484
ag2484
ag2484
ag2485
ag2492
ag2484
ag2484
ag2484
ag2484
ag2484
ag2484
ag2484
ag2484
ag2484
ag2484
ag2484
ag2484
ag2484
ag2484
ag2484
ag2489
ag2484
ag2484
ag2484
ag2484
ag2489
ag2484
ag2484
ag2484
ag2484
ag2484
ag2484
ag2487
ag2484
ag2484
ag2484
ag2484
ag2484
ag2484
ag2484
ag2484
ag2484
ag2484
ag2484
ag2484
ag2484
ag2490
ag2484
ag2484
ag2484
ag2484
ag2484
ag2484
ag2484
ag2484
ag2484
ag2484
ag2484
ag2484
ag2484
ag2492
ag2489
ag2484
ag2484
ag2484
ag2484
ag2484
ag2484
ag2484
ag2484
ag2484
ag2484
ag2487
ag2484
ag2485
ag2484
ag2484
ag2484
ag2484
ag2487
ag2484
ag2484
ag2489
ag2484
ag2484
ag2484
ag2484
ag2484
ag2484
ag2489
ag2489
ag2489
ag2489
ag2492
ag2484
ag2484
ag2484
ag2484
ag2489
ag2484
ag2484
ag2484
ag2484
ag2484
ag2484
ag2484
ag2484
ag2484
ag2484
ag2484
ag2484
ag2494
ag2484
ag2484
ag2484
ag2484
ag2484
ag2484
ag2484
ag2484
ag2484
ag2484
ag2484
ag2484
ag2484
ag2484
ag2484
ag2484
ag2484
ag2484
ag2489
ag2484
ag2484
ag2484
ag2484
ag2484
ag2485
ag2484
ag2484
ag2492
ag2492
ag2484
ag2484
ag2484
ag2484
ag2484
ag2484
ag2484
ag2484
ag2491
ag2484
ag2490
ag2487
ag2484
ag2487
ag2485
ag2484
ag2493
ag2489
ag2489
ag2490
ag2484
ag2484
ag2484
ag2484
ag2489
ag2484
ag2485
ag2490
ag2484
ag2487
ag2486
ag2484
ag2489
ag2489
ag2484
ag2488
ag2489
ag2484
ag2484
ag2489
ag2484
ag2484
ag2485
ag2484
ag2493
ag2487
ag2487
ag2484
ag2490
ag2484
ag2488
ag2484
ag2489
ag2489
ag2486
ag2489
ag2486
ag2494
ag2484
ag2489
ag2487
ag2490
ag2492
ag2484
ag2489
ag2484
ag2484
ag2484
ag2487
ag2484
ag2490
ag2486
ag2489
ag2486
ag2484
ag2484
ag2487
ag2484
ag2484
ag2484
ag2484
ag2484
ag2484
ag2484
ag2494
ag2491
ag2486
ag2484
ag2486
ag2494
ag2490
ag2484
ag2485
ag2484
ag2484
ag2494
ag2484
ag2484
ag2484
ag2484
ag2489
ag2489
ag2484
ag2484
ag2489
ag2489
ag2484
ag2491
ag2484
ag2493
ag2484
ag2484
ag2484
ag2489
ag2489
ag2490
ag2484
ag2484
ag2487
ag2484
ag2484
ag2484
ag2484
ag2489
ag2485
ag2484
ag2494
ag2489
ag2484
ag2484
ag2484
ag2484
ag2491
ag2490
ag2484
ag2484
ag2484
ag2484
ag2489
ag2487
ag2489
ag2484
ag2489
ag2484
ag2490
ag2484
ag2484
ag2484
ag2484
ag2484
ag2484
ag2484
ag2484
ag2487
ag2484
ag2493
ag2484
ag2486
ag2484
ag2490
ag2484
ag2484
ag2484
ag2487
ag2484
ag2484
ag2484
ag2484
ag2484
ag2484
ag2484
ag2484
ag2484
ag2492
ag2484
ag2484
ag2484
ag2484
ag2484
ag2489
ag2484
ag2491
ag2484
ag2484
ag2484
ag2484
ag2487
ag2486
ag2484
ag2484
ag2484
ag2484
ag2489
ag2484
ag2484
ag2484
ag2484
ag2484
ag2484
ag2487
ag2484
ag2487
ag2484
ag2484
ag2484
ag2489
ag2489
ag2487
ag2484
ag2484
ag2484
ag2484
ag2490
ag2484
ag2492
ag2484
ag2484
ag2484
ag2484
ag2484
ag2484
ag2490
ag2484
ag2487
ag2489
ag2484
ag2484
ag2484
ag2489
ag2491
ag2484
ag2490
ag2484
ag2486
ag2488
ag2489
ag2489
ag2485
ag2484
ag2487
ag2493
ag2484
ag2487
ag2484
ag2484
ag2484
ag2484
ag2484
ag2484
ag2484
ag2484
ag2487
ag2484
ag2484
ag2484
ag2484
ag2484
ag2484
ag2484
ag2484
ag2484
ag2484
ag2489
ag2489
ag2489
ag2484
ag2484
ag2484
ag2484
ag2487
ag2487
ag2489
ag2484
ag2484
ag2484
ag2484
ag2484
ag2484
ag2484
ag2489
ag2486
ag2484
ag2484
ag2484
ag2489
ag2484
ag2484
ag2489
ag2484
ag2484
ag2490
ag2485
ag2484
ag2484
ag2484
ag2485
ag2484
ag2484
ag2484
ag2484
ag2492
ag2484
ag2486
ag2491
ag2484
ag2484
ag2493
ag2485
ag2491
ag2484
ag2489
ag2484
ag2484
ag2487
ag2484
ag2484
ag2484
ag2484
ag2484
ag2484
ag2484
ag2491
ag2484
ag2484
ag2494
ag2484
ag2484
ag2484
ag2484
ag2490
ag2484
ag2489
ag2487
ag2484
ag2484
ag2484
ag2489
ag2484
ag2487
ag2484
ag2484
ag2487
ag2488
ag2484
ag2484
ag2484
ag2484
ag2487
ag2484
ag2484
ag2484
ag2487
ag2484
ag2484
ag2484
ag2484
ag2492
ag2484
ag2484
ag2484
ag2484
ag2484
ag2484
ag2484
ag2484
ag2484
ag2484
ag2484
ag2484
ag2489
ag2487
ag2489
ag2484
ag2484
ag2484
ag2489
ag2484
ag2490
ag2484
ag2484
ag2484
ag2486
ag2489
ag2489
ag2489
ag2487
ag2492
ag2484
ag2485
ag2484
ag2489
ag2489
ag2490
ag2484
ag2484
ag2484
ag2484
ag2491
ag2484
ag2484
ag2484
ag2493
ag2484
ag2484
ag2491
ag2486
ag2493
ag2484
ag2491
ag2494
ag2484
ag2488
ag2484
ag2484
ag2484
ag2484
ag2484
ag2484
ag2484
ag2484
ag2489
ag2484
ag2484
ag2487
ag2484
ag2484
ag2484
ag2489
ag2485
ag2484
ag2491
ag2484
ag2484
ag2484
ag2484
ag2484
ag2484
ag2484
ag2484
ag2484
ag2484
ag2484
ag2484
ag2484
ag2484
ag2484
ag2484
ag2484
ag2484
ag2484
ag2484
ag2489
ag2484
ag2489
ag2484
ag2484
ag2484
ag2489
ag2484
ag2484
ag2484
ag2487
ag2484
ag2484
ag2490
ag2484
ag2484
ag2489
ag2484
ag2484
ag2489
ag2485
ag2484
ag2484
ag2484
ag2488
ag2489
ag2484
ag2484
ag2485
ag2484
ag2484
ag2492
ag2489
ag2491
ag2484
ag2484
ag2484
ag2484
ag2489
ag2485
ag2484
ag2484
ag2484
ag2484
ag2484
ag2484
ag2484
ag2484
ag2484
ag2484
ag2484
ag2484
ag2484
ag2489
ag2484
ag2492
ag2484
ag2484
ag2485
ag2484
ag2484
ag2484
ag2484
ag2484
ag2484
ag2484
ag2484
ag2490
ag2484
ag2484
ag2484
ag2489
ag2484
ag2489
ag2489
ag2484
ag2484
ag2484
ag2484
ag2489
ag2484
ag2484
ag2484
ag2484
ag2484
ag2489
ag2491
ag2484
ag2484
ag2484
ag2484
ag2484
ag2489
ag2484
ag2484
ag2484
ag2484
ag2484
ag2484
ag2484
ag2484
ag2484
ag2484
ag2484
ag2484
ag2487
ag2484
ag2484
ag2489
ag2484
ag2484
ag2489
ag2484
ag2484
ag2484
ag2484
ag2492
ag2484
ag2484
ag2484
ag2484
ag2484
ag2484
ag2486
ag2484
ag2484
ag2484
ag2484
ag2487
ag2484
ag2493
ag2484
ag2484
ag2484
ag2489
ag2484
ag2484
ag2489
ag2484
ag2489
ag2484
ag2489
ag2484
ag2484
ag2484
ag2484
ag2484
ag2484
ag2484
ag2489
ag2484
ag2484
ag2491
ag2484
ag2489
ag2484
ag2489
ag2489
ag2489
ag2489
ag2484
ag2484
ag2484
ag2484
ag2484
ag2484
ag2484
ag2484
ag2484
ag2484
ag2484
ag2484
ag2489
ag2484
ag2484
ag2484
ag2484
ag2484
ag2484
ag2489
ag2484
ag2484
ag2484
ag2484
ag2484
ag2484
ag2484
ag2484
ag2484
ag2484
ag2484
ag2484
ag2484
ag2484
ag2484
ag2484
ag2484
ag2484
ag2484
ag2484
ag2484
ag2487
ag2487
ag2487
ag2492
ag2485
ag2484
ag2484
ag2484
ag2484
ag2484
ag2484
ag2484
ag2484
ag2484
ag2484
ag2484
ag2488
ag2484
ag2484
ag2484
ag2490
ag2490
ag2484
ag2484
ag2484
ag2484
ag2484
ag2490
ag2484
ag2484
ag2484
ag2491
ag2489
ag2484
ag2488
ag2484
ag2484
ag2490
ag2484
ag2484
ag2484
ag2484
ag2484
ag2484
ag2484
ag2484
ag2484
ag2484
ag2484
ag2484
ag2485
ag2484
ag2484
ag2484
ag2484
ag2484
ag2484
ag2484
ag2484
ag2484
ag2484
ag2484
ag2484
ag2484
ag2484
ag2484
ag2484
ag2487
ag2484
ag2484
ag2484
ag2484
ag2484
ag2484
ag2484
ag2484
ag2484
ag2484
ag2484
ag2484
ag2484
ag2484
ag2484
ag2484
ag2484
ag2484
ag2484
ag2484
ag2484
ag2484
ag2484
ag2484
ag2484
ag2484
ag2484
ag2484
ag2484
ag2484
ag2489
ag2484
ag2484
ag2484
ag2484
ag2485
ag2484
ag2484
ag2491
ag2484
ag2487
ag2484
ag2489
ag2484
ag2489
ag2486
ag2494
ag2487
ag2484
ag2484
ag2484
ag2484
ag2484
ag2485
ag2484
ag2494
ag2487
ag2484
ag2484
ag2484
ag2484
ag2484
ag2484
ag2484
ag2484
ag2491
ag2484
ag2489
ag2489
ag2489
ag2484
ag2484
ag2486
ag2484
ag2490
ag2484
ag2489
ag2484
ag2484
ag2484
ag2487
ag2484
ag2493
ag2484
ag2484
ag2485
ag2486
ag2484
ag2487
ag2485
ag2489
ag2484
ag2484
ag2484
ag2484
ag2487
ag2484
ag2484
ag2484
ag2484
ag2484
ag2484
ag2484
ag2489
ag2484
ag2491
ag2484
ag2484
ag2484
ag2484
ag2484
ag2484
ag2484
ag2484
ag2491
ag2487
ag2484
ag2485
ag2484
ag2484
ag2484
ag2484
ag2484
ag2489
ag2484
ag2485
ag2484
ag2484
ag2484
ag2489
ag2484
ag2485
ag2484
ag2484
ag2490
ag2484
ag2484
ag2489
ag2489
ag2489
ag2489
ag2484
ag2484
ag2484
ag2487
ag2484
ag2484
ag2484
ag2484
ag2484
ag2484
ag2484
ag2484
ag2484
ag2484
ag2489
ag2484
ag2484
ag2484
ag2484
atp2495
ba(lp2496
g15
(g16
(dp2497
g18
g19
(g20
(I0
tp2498
g22
tp2499
Rp2500
(I1
(I2
tp2501
g29
I00
(lp2502
g33
ag34
atp2503
bsg36
Nstp2504
Rp2505
a(dp2506
S'0.14.1'
p2507
(dp2508
S'axes'
p2509
g14
sS'blocks'
p2510
(lp2511
(dp2512
S'mgr_locs'
p2513
c__builtin__
slice
p2514
(I0
I2
I1
tp2515
Rp2516
sS'values'
p2517
g1525
sasstp2518
bsb.